DESCRIPTION     'TRIAS® Containerbibliothek, Copyright(C) 1991 - 1997 uve GmbH Fernerkundungszentrum Potsdam'

EXPORTS
	??0CAccessViolation@@QAE@ABV0@@Z                            	@1
	??0CAccessViolation@@QAE@PBD@Z                              	@2
	??0CArrayBoundsExceeded@@QAE@ABV0@@Z                        	@3
	??0CArrayBoundsExceeded@@QAE@PBD@Z                          	@4
	??0CArrayContainer@@QAE@ABV0@@Z                             	@5
	??0CArrayContainer@@QAE@IW4tagCONTFLAGS@@@Z                 	@6
	??0CArrayNode@@QAE@ABV0@@Z                                  	@7
	??0CArrayNode@@QAE@PAX@Z                                    	@8
	??0CArrayNode@@QAE@XZ                                       	@9
	??0CBinaryNode@@QAE@AAVCTree@@@Z                            	@10
	??0CBinaryNode@@QAE@ABV0@@Z                                 	@11
	??0CBinaryNode@@QAE@PAXAAVCTree@@PAV0@@Z                    	@12
	??0CBinaryNode@@QAE@XZ                                      	@13
	??0CBreakPoint@@QAE@ABV0@@Z                                 	@14
	??0CBreakPoint@@QAE@PBD@Z                                   	@15
	??0CContainer@@QAE@ABV0@@Z                                  	@16
	??0CContainer@@QAE@W4tagCONTFLAGS@@@Z                       	@17
	??0CCreator@@QAE@AAVCContainer@@@Z                          	@18
	??0CCreator@@QAE@ABV0@@Z                                    	@19
	??0CDCreator@@QAE@AAVCContainer@@0@Z                        	@20
	??0CDCreator@@QAE@ABV0@@Z                                   	@21
	??0CDatatypeMisalignment@@QAE@ABV0@@Z                       	@22
	??0CDatatypeMisalignment@@QAE@PBD@Z                         	@23
	??0CFltDenormalOperand@@QAE@ABV0@@Z                         	@24
	??0CFltDenormalOperand@@QAE@PBD@Z                           	@25
	??0CFltDivideByZero@@QAE@ABV0@@Z                            	@26
	??0CFltDivideByZero@@QAE@PBD@Z                              	@27
	??0CFltException@@QAE@ABV0@@Z                               	@28
	??0CFltException@@QAE@PBD@Z                                 	@29
	??0CFltInexactResult@@QAE@ABV0@@Z                           	@30
	??0CFltInexactResult@@QAE@PBD@Z                             	@31
	??0CFltInvalidOperation@@QAE@ABV0@@Z                        	@32
	??0CFltInvalidOperation@@QAE@PBD@Z                          	@33
	??0CFltOverflow@@QAE@ABV0@@Z                                	@34
	??0CFltOverflow@@QAE@PBD@Z                                  	@35
	??0CFltStackCheck@@QAE@ABV0@@Z                              	@36
	??0CFltStackCheck@@QAE@PBD@Z                                	@37
	??0CFltUnderflow@@QAE@ABV0@@Z                               	@38
	??0CFltUnderflow@@QAE@PBD@Z                                 	@39
	??0CHListNode@@QAE@AAVCHashTable@@@Z                        	@40
	??0CHListNode@@QAE@ABV0@@Z                                  	@41
	??0CHListNode@@QAE@PAXAAVCHashTable@@@Z                     	@42
	??0CHListNode@@QAE@XZ                                       	@43
	??0CHashNode@@QAE@AAVCHashTable@@I@Z                        	@44
	??0CHashNode@@QAE@ABV0@@Z                                   	@45
	??0CHashNode@@QAE@XZ                                        	@46
	??0CHashTable@@QAE@ABV0@@Z                                  	@47
	??0CHashTable@@QAE@P6APAXPAX@ZP6AH00@ZP6AI0@ZIW4tagCONTFLAGS@@@Z	@48
	??0CHashTable@@QAE@W4tagCONTFLAGS@@@Z                       	@49
	??0CIntDivideByZero@@QAE@ABV0@@Z                            	@50
	??0CIntDivideByZero@@QAE@PBD@Z                              	@51
	??0CIntException@@QAE@ABV0@@Z                               	@52
	??0CIntException@@QAE@PBD@Z                                 	@53
	??0CIntOverflow@@QAE@ABV0@@Z                                	@54
	??0CIntOverflow@@QAE@PBD@Z                                  	@55
	??0CKeyContainer@@QAE@ABV0@@Z                               	@56
	??0CKeyContainer@@QAE@P6APAXPAX@ZP6AH00@ZW4tagCONTFLAGS@@@Z 	@57
	??0CKeyContainer@@QAE@W4tagCONTFLAGS@@@Z                    	@58
	??0CKeyNode@@QAE@AAVCKeyContainer@@@Z                       	@59
	??0CKeyNode@@QAE@ABV0@@Z                                    	@60
	??0CKeyNode@@QAE@PAXAAVCKeyContainer@@@Z                    	@61
	??0CKeyNode@@QAE@XZ                                         	@62
	??0CListContainer@@QAE@ABV0@@Z                              	@63
	??0CListContainer@@QAE@W4tagCONTFLAGS@@@Z                   	@64
	??0CListNode@@QAE@ABV0@@Z                                   	@65
	??0CListNode@@QAE@PAX@Z                                     	@66
	??0CListNode@@QAE@XZ                                        	@67
	??0CLock@@IAE@AAVCNavigator@@@Z                             	@68
	??0CLock@@IAE@PAX@Z                                         	@69
	??0CLock@@QAE@ABV0@@Z                                       	@70
	??0CMathException@@QAE@ABV0@@Z                              	@71
	??0CMathException@@QAE@PBD@Z                                	@72
	??0CMutex@@QAE@_N@Z                                         	@73
	??0CNakedLock@@QAE@ABV0@@Z                                  	@74
	??0CNakedLock@@QAE@PAX@Z                                    	@75
	??0CNavigator@@IAE@AAV0@@Z                                  	@76
	??0CNavigator@@IAE@AAVCContainer@@@Z                        	@77
	??0CNode@@QAE@ABV0@@Z                                       	@78
	??0CNode@@QAE@PAX@Z                                         	@79
	??0CNode@@QAE@XZ                                            	@80
	??0CNoncontinueableException@@QAE@ABV0@@Z                   	@81
	??0CNoncontinueableException@@QAE@PBD@Z                     	@82
	??0CPrivInstruction@@QAE@ABV0@@Z                            	@83
	??0CPrivInstruction@@QAE@PBD@Z                              	@84
	??0CRing@@QAE@AAV0@@Z                                       	@85
	??0CRing@@QAE@AAVCSeqContainer@@@Z                          	@86
	??0CSeqContainer@@QAE@ABV0@@Z                               	@87
	??0CSeqContainer@@QAE@W4tagCONTFLAGS@@@Z                    	@88
	??0CSeqNode@@QAE@ABV0@@Z                                    	@89
	??0CSeqNode@@QAE@PAX@Z                                      	@90
	??0CSeqNode@@QAE@XZ                                         	@91
	??0CSingleStep@@QAE@ABV0@@Z                                 	@92
	??0CSingleStep@@QAE@PBD@Z                                   	@93
	??0CSyncMonitor@@IAE@_N@Z                                   	@94
	??0CTable@@QAE@AAV0@@Z                                      	@95
	??0CTable@@QAE@AAVCKeyContainer@@@Z                         	@96
	??0CTree@@QAE@ABV0@@Z                                       	@97
	??0CTree@@QAE@P6APAXPAX@ZP6AH00@ZW4tagCONTFLAGS@@@Z         	@98
	??0CTree@@QAE@W4tagCONTFLAGS@@@Z                            	@99
	??0CWin32Exception@@QAE@ABV0@@Z                             	@100
	??0CWin32Exception@@QAE@PBD@Z                               	@101
	??0CWin32UserException@@QAE@ABV0@@Z                         	@102
	??0CWin32UserException@@QAE@IPBD@Z                          	@103
	??0DelTree@@QAE@ABV0@@Z                                     	@104
	??0DelTree@@QAE@P6APAXPAX@ZP6AH00@ZW4tagCONTFLAGS@@@Z       	@105
	??0UniqueTree@@QAE@ABV0@@Z                                  	@106
	??0UniqueTree@@QAE@P6APAXPAX@ZP6AH00@ZW4tagCONTFLAGS@@@Z    	@107
	??1CAccessViolation@@UAE@XZ                                 	@108
	??1CArrayBoundsExceeded@@UAE@XZ                             	@109
	??1CArrayContainer@@UAE@XZ                                  	@110
	??1CBreakPoint@@UAE@XZ                                      	@111
	??1CContainer@@UAE@XZ                                       	@112
	??1CCreator@@QAE@XZ                                         	@113
	??1CDCreator@@QAE@XZ                                        	@114
	??1CDatatypeMisalignment@@UAE@XZ                            	@115
	??1CFltDenormalOperand@@UAE@XZ                              	@116
	??1CFltDivideByZero@@UAE@XZ                                 	@117
	??1CFltException@@UAE@XZ                                    	@118
	??1CFltInexactResult@@UAE@XZ                                	@119
	??1CFltInvalidOperation@@UAE@XZ                             	@120
	??1CFltOverflow@@UAE@XZ                                     	@121
	??1CFltStackCheck@@UAE@XZ                                   	@122
	??1CFltUnderflow@@UAE@XZ                                    	@123
	??1CHashNode@@QAE@XZ                                        	@124
	??1CHashTable@@UAE@XZ                                       	@125
	??1CIntDivideByZero@@UAE@XZ                                 	@126
	??1CIntException@@UAE@XZ                                    	@127
	??1CIntOverflow@@UAE@XZ                                     	@128
	??1CKeyContainer@@UAE@XZ                                    	@129
	??1CListContainer@@UAE@XZ                                   	@130
	??1CLock@@QAE@XZ                                            	@131
	??1CMathException@@UAE@XZ                                   	@132
	??1CMutex@@QAE@XZ                                           	@133
	??1CNakedLock@@QAE@XZ                                       	@134
	??1CNavigator@@QAE@XZ                                       	@135
	??1CNoncontinueableException@@UAE@XZ                        	@136
	??1CPrivInstruction@@UAE@XZ                                 	@137
	??1CRing@@QAE@XZ                                            	@138
	??1CSeqContainer@@UAE@XZ                                    	@139
	??1CSingleStep@@UAE@XZ                                      	@140
	??1CSyncMonitor@@QAE@XZ                                     	@141
	??1CTable@@QAE@XZ                                           	@142
	??1CTree@@UAE@XZ                                            	@143
	??1CWin32Exception@@UAE@XZ                                  	@144
	??1CWin32UserException@@UAE@XZ                              	@145
	??1DelTree@@UAE@XZ                                          	@146
	??1UniqueTree@@UAE@XZ                                       	@147
	??4CAccessViolation@@QAEAAV0@ABV0@@Z                        	@148
	??4CArrayBoundsExceeded@@QAEAAV0@ABV0@@Z                    	@149
	??4CArrayContainer@@QAEAAV0@ABV0@@Z                         	@150
	??4CArrayNode@@QAEAAV0@AAV0@@Z                              	@151
	??4CBinaryNode@@QAEAAV0@AAV0@@Z                             	@152
	??4CBreakPoint@@QAEAAV0@ABV0@@Z                             	@153
	??4CContainer@@QAEAAV0@ABV0@@Z                              	@154
	??4CDatatypeMisalignment@@QAEAAV0@ABV0@@Z                   	@155
	??4CFltDenormalOperand@@QAEAAV0@ABV0@@Z                     	@156
	??4CFltDivideByZero@@QAEAAV0@ABV0@@Z                        	@157
	??4CFltException@@QAEAAV0@ABV0@@Z                           	@158
	??4CFltInexactResult@@QAEAAV0@ABV0@@Z                       	@159
	??4CFltInvalidOperation@@QAEAAV0@ABV0@@Z                    	@160
	??4CFltOverflow@@QAEAAV0@ABV0@@Z                            	@161
	??4CFltStackCheck@@QAEAAV0@ABV0@@Z                          	@162
	??4CFltUnderflow@@QAEAAV0@ABV0@@Z                           	@163
	??4CHListNode@@QAEAAV0@AAV0@@Z                              	@164
	??4CHashNode@@QAEAAV0@AAV0@@Z                               	@165
	??4CHashTable@@QAEAAV0@ABV0@@Z                              	@166
	??4CIntDivideByZero@@QAEAAV0@ABV0@@Z                        	@167
	??4CIntException@@QAEAAV0@ABV0@@Z                           	@168
	??4CIntOverflow@@QAEAAV0@ABV0@@Z                            	@169
	??4CKeyContainer@@QAEAAV0@ABV0@@Z                           	@170
	??4CKeyNode@@QAEAAV0@AAV0@@Z                                	@171
	??4CListContainer@@QAEAAV0@ABV0@@Z                          	@172
	??4CListNode@@QAEAAV0@AAV0@@Z                               	@173
	??4CLock@@QAEAAV0@ABV0@@Z                                   	@174
	??4CMathException@@QAEAAV0@ABV0@@Z                          	@175
	??4CMutex@@QAEAAV0@ABV0@@Z                                  	@176
	??4CNakedLock@@QAEAAV0@ABV0@@Z                              	@177
	??4CNode@@QAEAAV0@AAV0@@Z                                   	@178
	??4CNoncontinueableException@@QAEAAV0@ABV0@@Z               	@179
	??4CPrivInstruction@@QAEAAV0@ABV0@@Z                        	@180
	??4CSeqContainer@@QAEAAV0@ABV0@@Z                           	@181
	??4CSeqNode@@QAEAAV0@AAV0@@Z                                	@182
	??4CSingleStep@@QAEAAV0@ABV0@@Z                             	@183
	??4CSyncMonitor@@QAEAAV0@ABV0@@Z                            	@184
	??4CTree@@QAEAAV0@ABV0@@Z                                   	@185
	??4CWin32Exception@@QAEAAV0@ABV0@@Z                         	@186
	??4CWin32UserException@@QAEAAV0@ABV0@@Z                     	@187
	??4DelTree@@QAEAAV0@ABV0@@Z                                 	@188
	??4UniqueTree@@QAEAAV0@ABV0@@Z                              	@189
	??BCMutex@@QAE_NXZ                                          	@190
	??_7CAccessViolation@@6B@                                   	@191
	??_7CArrayBoundsExceeded@@6B@                               	@192
	??_7CArrayContainer@@6B@                                    	@193
	??_7CArrayNode@@6B@                                         	@194
	??_7CBinaryNode@@6B@                                        	@195
	??_7CBreakPoint@@6B@                                        	@196
	??_7CContainer@@6B@                                         	@197
	??_7CCreator@@6B@                                           	@198
	??_7CDCreator@@6B@                                          	@199
	??_7CDatatypeMisalignment@@6B@                              	@200
	??_7CFltDenormalOperand@@6B@                                	@201
	??_7CFltDivideByZero@@6B@                                   	@202
	??_7CFltException@@6B@                                      	@203
	??_7CFltInexactResult@@6B@                                  	@204
	??_7CFltInvalidOperation@@6B@                               	@205
	??_7CFltOverflow@@6B@                                       	@206
	??_7CFltStackCheck@@6B@                                     	@207
	??_7CFltUnderflow@@6B@                                      	@208
	??_7CHListNode@@6B@                                         	@209
	??_7CHashNode@@6B@                                          	@210
	??_7CHashTable@@6B@                                         	@211
	??_7CIntDivideByZero@@6B@                                   	@212
	??_7CIntException@@6B@                                      	@213
	??_7CIntOverflow@@6B@                                       	@214
	??_7CKeyContainer@@6B@                                      	@215
	??_7CKeyNode@@6B@                                           	@216
	??_7CListContainer@@6B@                                     	@217
	??_7CListNode@@6B@                                          	@218
	??_7CLock@@6B@                                              	@219
	??_7CMathException@@6B@                                     	@220
	??_7CNakedLock@@6B@                                         	@221
	??_7CNode@@6B@                                              	@222
	??_7CNoncontinueableException@@6B@                          	@223
	??_7CPrivInstruction@@6B@                                   	@224
	??_7CSeqContainer@@6B@                                      	@225
	??_7CSeqNode@@6B@                                           	@226
	??_7CSingleStep@@6B@                                        	@227
	??_7CTree@@6B@                                              	@228
	??_7CWin32Exception@@6B@                                    	@229
	??_7CWin32UserException@@6B@                                	@230
	??_7DelTree@@6B@                                            	@231
	??_7UniqueTree@@6B@                                         	@232
	??_FCAccessViolation@@QAEXXZ                                	@233
	??_FCArrayBoundsExceeded@@QAEXXZ                            	@234
	??_FCArrayContainer@@QAEXXZ                                 	@235
	??_FCBreakPoint@@QAEXXZ                                     	@236
	??_FCContainer@@QAEXXZ                                      	@237
	??_FCDatatypeMisalignment@@QAEXXZ                           	@238
	??_FCFltDenormalOperand@@QAEXXZ                             	@239
	??_FCFltDivideByZero@@QAEXXZ                                	@240
	??_FCFltInexactResult@@QAEXXZ                               	@241
	??_FCFltInvalidOperation@@QAEXXZ                            	@242
	??_FCFltOverflow@@QAEXXZ                                    	@243
	??_FCFltStackCheck@@QAEXXZ                                  	@244
	??_FCFltUnderflow@@QAEXXZ                                   	@245
	??_FCHashTable@@QAEXXZ                                      	@246
	??_FCIntDivideByZero@@QAEXXZ                                	@247
	??_FCIntOverflow@@QAEXXZ                                    	@248
	??_FCKeyContainer@@QAEXXZ                                   	@249
	??_FCListContainer@@QAEXXZ                                  	@250
	??_FCMutex@@QAEXXZ                                          	@251
	??_FCNoncontinueableException@@QAEXXZ                       	@252
	??_FCPrivInstruction@@QAEXXZ                                	@253
	??_FCSeqContainer@@QAEXXZ                                   	@254
	??_FCSingleStep@@QAEXXZ                                     	@255
	??_FCSyncMonitor@@QAEXXZ                                    	@256
	??_FCTree@@QAEXXZ                                           	@257
	?Alloc@CCreator@@QAEPAXI@Z                                  	@258
	?Alloc@CDCreator@@QAEPAXI@Z                                 	@259
	?Append@CHListNode@@QAEXPAV1@@Z                             	@260
	?Append@CListNode@@QAEXPAV1@@Z                              	@261
	?AssertFailedLine@@YG_NPBD0H@Z                              	@262
	?AssertValid@CArrayContainer@@UBEXXZ                        	@263
	?AssertValid@CContainer@@UBEXXZ                             	@264
	?AssertValid@CCreator@@UBEXXZ                               	@265
	?AssertValid@CDCreator@@UBEXXZ                              	@266
	?AssertValid@CHashTable@@UBEXXZ                             	@267
	?AssertValid@CKeyContainer@@UBEXXZ                          	@268
	?AssertValid@CListContainer@@UBEXXZ                         	@269
	?AssertValid@CLock@@UBEXXZ                                  	@270
	?AssertValid@CTree@@UBEXXZ                                  	@271
	?AverageCompares@CHashTable@@QBEIXZ                         	@272
	?AverageCompares@CTree@@QBEIXZ                              	@273
	?Branch@CTree@@AAEPAVCBinaryNode@@PAV2@W4Richtung@@@Z       	@274
	?BucketsOfLength@CHashTable@@QBEII@Z                        	@275
	?Compare@CKeyNode@@QBEHPAX@Z                                	@276
	?ContFlags@CContainer@@QAEGW4tagCONTFLAGS@@@Z               	@277
	?CorrectParents@CTree@@AAEXXZ                               	@278
	?Count@CContainer@@QBEKXZ                                   	@279
	?CurrentAfterDelete@CArrayNode@@UAEPAVCNode@@PAV2@@Z        	@280
	?CurrentAfterDelete@CHashNode@@UAEPAVCNode@@PAV2@@Z         	@281
	?CurrentAfterDelete@CKeyNode@@UAEPAVCNode@@PAV2@@Z          	@282
	?CurrentAfterDelete@CListNode@@UAEPAVCNode@@PAV2@@Z         	@283
	?CurrentAfterDelete@CNode@@UAEPAV1@PAV1@@Z                  	@284
	?DataStructure@CArrayContainer@@MBEPAVCNode@@XZ             	@285
	?DataStructure@CContainer@@MBEPAVCNode@@XZ                  	@286
	?DataStructure@CHashTable@@MBEPAVCNode@@XZ                  	@287
	?DataStructure@CListContainer@@MBEPAVCNode@@XZ              	@288
	?DataStructure@CTree@@MBEPAVCNode@@XZ                       	@289
	?Delete@CArrayContainer@@MAE_NPAVCNode@@@Z                  	@290
	?Delete@CContainer@@MAE_NPAVCNode@@@Z                       	@291
	?Delete@CHashTable@@MAE_NPAVCNode@@@Z                       	@292
	?Delete@CListContainer@@MAE_NPAVCNode@@@Z                   	@293
	?Delete@CNavigator@@QAE_NXZ                                 	@294
	?Delete@CTree@@MAE_NPAVCNode@@@Z                            	@295
	?DeleteNotify@CNavigator@@AAEXPAVCNode@@@Z                  	@296
	?Depth@CTree@@AAEJPAVCBinaryNode@@W4Richtung@@@Z            	@297
	?EmptyBuckets@CHashTable@@QBEIXZ                            	@298
	?Every@CContainer@@UAEXP6AXPAX@Z@Z                          	@299
	?Every@CContainer@@UAE_NP6A_NPAX0@Z0@Z                      	@300
	?Every@CHashTable@@UAEXP6AXPAX@Z@Z                          	@301
	?Every@CHashTable@@UAE_NP6A_NPAX0@Z0@Z                      	@302
	?Every@CSeqContainer@@UAEXP6AXPAX@Z@Z                       	@303
	?Every@CSeqContainer@@UAE_NP6A_NPAX0@Z0@Z                   	@304
	?Every@CTree@@UAEXP6AXPAX@Z@Z                               	@305
	?Every@CTree@@UAE_NP6A_NPAX0@Z0@Z                           	@306
	?EveryDelete@CContainer@@UAE_NXZ                            	@307
	?ExtTrace@@YAXPBDZZ                                         	@308
	?Find@CBinaryNode@@UBEPAVCKeyNode@@PAX@Z                    	@309
	?Find@CHListNode@@UBEPAVCKeyNode@@PAX@Z                     	@310
	?Find@CHashNode@@UBEPAVCKeyNode@@PAX@Z                      	@311
	?Find@CKeyNode@@UBEPAV1@PAX@Z                               	@312
	?Find@CTable@@QAE_NPAX@Z                                    	@313
	?FindFirst@CKeyNode@@QBEPAV1@PAX@Z                          	@314
	?FindFirst@CTable@@QAE_NPAX@Z                               	@315
	?FindNext@CHListNode@@UBEPAVCKeyNode@@PAX@Z                 	@316
	?FindNext@CKeyNode@@UBEPAV1@PAX@Z                           	@317
	?FindNext@CTable@@QAE_NPAX@Z                                	@318
	?FindPrev@CHListNode@@UBEPAVCKeyNode@@PAX@Z                 	@319
	?FindPrev@CKeyNode@@UBEPAV1@PAX@Z                           	@320
	?FindPrev@CTable@@QAE_NPAX@Z                                	@321
	?First@CNavigator@@QAE_NXZ                                  	@322
	?First@CRing@@QAE_NXZ                                       	@323
	?FirstNode@CContainer@@MBEPAVCNode@@XZ                      	@324
	?FirstNode@CHashTable@@MBEPAVCNode@@XZ                      	@325
	?FirstNode@CTree@@MBEPAVCNode@@XZ                           	@326
	?Fold@CTree@@AAEPAVCBinaryNode@@PAV2@W4Richtung@@@Z         	@327
	?GetContainer@CKeyNode@@QBEAAVCKeyContainer@@XZ             	@328
	?GetContainer@CNavigator@@IBEAAVCContainer@@XZ              	@329
	?GetHandle@CLock@@IAEAAPAXXZ                                	@330
	?GetHandle@CNavigator@@IBEPAXXZ                             	@331
	?GetHandle@CNode@@QBEPAXXZ                                  	@332
	?GetNext@CHListNode@@QBEPAV1@XZ                             	@333
	?GetNext@CListNode@@QBEPAV1@XZ                              	@334
	?GetNode@CHashNode@@QBEPAVCHListNode@@I@Z                   	@335
	?GetPrev@CHListNode@@QBEPAV1@XZ                             	@336
	?GetPrev@CListNode@@QBEPAV1@XZ                              	@337
	?GetRank@CRing@@QBEKXZ                                      	@338
	?Goto@CRing@@QAE_NK@Z                                       	@339
	?Graft@CBinaryNode@@QAEXPAV1@0@Z                            	@340
	?Handle@CMutex@@QBEPAXXZ                                    	@341
	?InOrder@CTree@@AAEXPAVCBinaryNode@@P6AXPAX@Z@Z             	@342
	?InOrder@CTree@@AAE_NPAVCBinaryNode@@P6A_NPAX1@Z1@Z         	@343
	?Insert@CArrayContainer@@MAE_NPAX0@Z                        	@344
	?Insert@CContainer@@MAE_NPAX0@Z                             	@345
	?Insert@CCreator@@QAEXXZ                                    	@346
	?Insert@CDCreator@@QAE_NXZ                                  	@347
	?Insert@CHListNode@@QAEXPAV1@@Z                             	@348
	?Insert@CHashTable@@MAE_NPAX0@Z                             	@349
	?Insert@CListContainer@@MAE_NPAX0@Z                         	@350
	?Insert@CTree@@MAE_NPAX0@Z                                  	@351
	?InsertPointer@CCreator@@QAEPAXPAX@Z                        	@352
	?IntCmp@@YAHPAX0@Z                                          	@353
	?IntHash@@YAIPAX@Z                                          	@354
	?IsWin31@@YG_NXZ                                            	@355
	?IsWin32s@@YG_NXZ                                           	@356
	?IsWin40@@YG_NXZ                                            	@357
	?IsWinNT@@YG_NXZ                                            	@358
	?Last@CNavigator@@QAE_NXZ                                   	@359
	?Last@CRing@@QAE_NXZ                                        	@360
	?LastNode@CArrayContainer@@MBEPAVCNode@@XZ                  	@361
	?LastNode@CContainer@@MBEPAVCNode@@XZ                       	@362
	?LastNode@CHashTable@@MBEPAVCNode@@XZ                       	@363
	?LastNode@CListContainer@@MBEPAVCNode@@XZ                   	@364
	?LastNode@CTree@@MBEPAVCNode@@XZ                            	@365
	?Left@CBinaryNode@@QBEPAV1@XZ                               	@366
	?LeftMost@CBinaryNode@@QBEPAV1@XZ                           	@367
	?LeftMostOrRight@CBinaryNode@@QBEPAV1@XZ                    	@368
	?Linear@CTree@@AAEPAVCBinaryNode@@XZ                        	@369
	?Lock@CNode@@QAEXXZ                                         	@370
	?Locked@CNode@@QBEHXZ                                       	@371
	?Next@CArrayNode@@UBEPAVCSeqNode@@K@Z                       	@372
	?Next@CBinaryNode@@UBEPAVCKeyNode@@XZ                       	@373
	?Next@CHListNode@@UBEPAVCKeyNode@@XZ                        	@374
	?Next@CHashNode@@UBEPAVCKeyNode@@XZ                         	@375
	?Next@CKeyNode@@UBEPAV1@XZ                                  	@376
	?Next@CListNode@@UBEPAVCSeqNode@@K@Z                        	@377
	?Next@CRing@@QAE_NXZ                                        	@378
	?Next@CSeqNode@@UBEPAV1@K@Z                                 	@379
	?Next@CTable@@QAE_NXZ                                       	@380
	?Optimize@CTree@@QAEXXZ                                     	@381
	?P@CLock@@IAEPAXXZ                                          	@382
	?P@CNakedLock@@QAEPAXXZ                                     	@383
	?Parent@CBinaryNode@@QBEPAV1@XZ                             	@384
	?PostOrder@CTree@@AAEXPAVCBinaryNode@@P6AXPAX@Z@Z           	@385
	?PreOrder@CTree@@AAEXPAVCBinaryNode@@P6AXPAX@Z@Z            	@386
	?Prev@CArrayNode@@UBEPAVCSeqNode@@K@Z                       	@387
	?Prev@CBinaryNode@@UBEPAVCKeyNode@@XZ                       	@388
	?Prev@CHListNode@@UBEPAVCKeyNode@@XZ                        	@389
	?Prev@CHashNode@@UBEPAVCKeyNode@@XZ                         	@390
	?Prev@CKeyNode@@UBEPAV1@XZ                                  	@391
	?Prev@CListNode@@UBEPAVCSeqNode@@K@Z                        	@392
	?Prev@CRing@@QAE_NXZ                                        	@393
	?Prev@CSeqNode@@UBEPAV1@K@Z                                 	@394
	?Prev@CTable@@QAE_NXZ                                       	@395
	?ReInsert@CTable@@QAE_NPAXG@Z                               	@396
	?ReInsert@CTree@@QAEPAVCNode@@PAVCBinaryNode@@PAXG@Z        	@397
	?ReSize@CHashNode@@IAEXI@Z                                  	@398
	?Register@CContainer@@AAEXPAVCNavigator@@@Z                 	@399
	?Remove@CHListNode@@QAEXXZ                                  	@400
	?Remove@CListNode@@QAEXXZ                                   	@401
	?Reset@CNavigator@@QAEXXZ                                   	@402
	?ResetTranslator@CWin32Exception@@SA_NXZ                    	@403
	?Resize@CArrayContainer@@QAE_NI@Z                           	@404
	?Revoke@CCreator@@QAEXXZ                                    	@405
	?Right@CBinaryNode@@QBEPAV1@XZ                              	@406
	?RightMost@CBinaryNode@@QBEPAV1@XZ                          	@407
	?SetContainer@CKeyNode@@QAEXPAVCKeyContainer@@@Z            	@408
	?SetHandle@CNode@@QAEXPAX@Z                                 	@409
	?SetLeft@CBinaryNode@@QAEXPAV1@@Z                           	@410
	?SetNext@CHListNode@@QAEXPAV1@@Z                            	@411
	?SetNext@CListNode@@QAEXPAV1@@Z                             	@412
	?SetNode@CHashNode@@QAEXIPAVCHListNode@@@Z                  	@413
	?SetParent@CBinaryNode@@QAEXPAV1@@Z                         	@414
	?SetPrev@CHListNode@@QAEXPAV1@@Z                            	@415
	?SetPrev@CListNode@@QAEXPAV1@@Z                             	@416
	?SetRight@CBinaryNode@@QAEXPAV1@@Z                          	@417
	?SetTranslator@CWin32Exception@@SA_NXZ                      	@418
	?Size@CArrayContainer@@QBEIXZ                               	@419
	?Size@CHashNode@@QBEIXZ                                     	@420
	?Size@CHashTable@@QBEIXZ                                    	@421
	?Special@CTree@@AAEPAVCBinaryNode@@PAV2@W4Richtung@@@Z      	@422
	?StrCmp@@YAHPAX0@Z                                          	@423
	?StrHash@@YAIPAX@Z                                          	@424
	?TIsValidAddress@@YG_NPBXI_N@Z                              	@425
	?TIsValidIUnknown@@YG_NPBX@Z                                	@426
	?TIsValidString@@YG_NPBDH@Z                                 	@427
	?Translate@CWin32Exception@@SAIII@Z                         	@428
	?Translator@CWin32Exception@@SAXIPAU_EXCEPTION_POINTERS@@@Z 	@429
	?Unlock@CLock@@IAEXXZ                                       	@430
	?Unlock@CNode@@QAEXXZ                                       	@431
	?Unregister@CContainer@@AAEXPAVCNavigator@@@Z               	@432
	?UserDelete@CContainer@@MAEXPAX@Z                           	@433
	?UserDelete@DelTree@@MAEXPAX@Z                              	@434
	?Valid@CLock@@QAE_NXZ                                       	@435
	?Valid@CNavigator@@QBE_NXZ                                  	@436
	?ValidateTree@CTree@@AAE_NPAVCBinaryNode@@@Z                	@437
	?_exception_code@CWin32UserException@@QBEIXZ                	@438
	?lock@CLock@@IAEXXZ                                         	@439
	?m_fInstalled@CWin32Exception@@0_NA                         	@440
	?m_pNextProc@CWin32Exception@@0P6AXIPAU_EXCEPTION_POINTERS@@@ZA	@441
	?m_uiTranslated@CWin32Exception@@0IA                        	@442
