DESCRIPTION     'TRIAS® Containerbibliothek, Copyright(C) 1991 - 1997 uve GmbH Fernerkundungszentrum Potsdam'

EXPORTS
	??0CAccessViolation@@QAE@ABV0@@Z                            	@352
	??0CAccessViolation@@QAE@PBD@Z                              	@353
	??0CArrayBoundsExceeded@@QAE@ABV0@@Z                        	@354
	??0CArrayBoundsExceeded@@QAE@PBD@Z                          	@355
	??0CArrayContainer@@QAE@ABV0@@Z                             	@1
	??0CArrayContainer@@QAE@IW4tagCONTFLAGS@@@Z                 	@2
	??0CArrayNode@@QAE@ABV0@@Z                                  	@3
	??0CArrayNode@@QAE@PAX@Z                                    	@4
	??0CArrayNode@@QAE@XZ                                       	@5
	??0CBinaryNode@@QAE@AAVCTree@@@Z                            	@6
	??0CBinaryNode@@QAE@ABV0@@Z                                 	@7
	??0CBinaryNode@@QAE@PAXAAVCTree@@PAV0@@Z                    	@8
	??0CBinaryNode@@QAE@XZ                                      	@9
	??0CBreakPoint@@QAE@ABV0@@Z                                 	@356
	??0CBreakPoint@@QAE@PBD@Z                                   	@357
	??0CContainer@@QAE@ABV0@@Z                                  	@10
	??0CContainer@@QAE@W4tagCONTFLAGS@@@Z                       	@11
	??0CCreator@@QAE@AAVCContainer@@@Z                          	@12
	??0CCreator@@QAE@ABV0@@Z                                    	@13
	??0CDCreator@@QAE@AAVCContainer@@0@Z                        	@14
	??0CDCreator@@QAE@ABV0@@Z                                   	@15
	??0CDatatypeMisalignment@@QAE@ABV0@@Z                       	@358
	??0CDatatypeMisalignment@@QAE@PBD@Z                         	@359
	??0CFltDenormalOperand@@QAE@ABV0@@Z                         	@360
	??0CFltDenormalOperand@@QAE@PBD@Z                           	@361
	??0CFltDivideByZero@@QAE@ABV0@@Z                            	@362
	??0CFltDivideByZero@@QAE@PBD@Z                              	@363
	??0CFltException@@QAE@ABV0@@Z                               	@364
	??0CFltException@@QAE@PBD@Z                                 	@365
	??0CFltInexactResult@@QAE@ABV0@@Z                           	@366
	??0CFltInexactResult@@QAE@PBD@Z                             	@367
	??0CFltInvalidOperation@@QAE@ABV0@@Z                        	@368
	??0CFltInvalidOperation@@QAE@PBD@Z                          	@369
	??0CFltOverflow@@QAE@ABV0@@Z                                	@370
	??0CFltOverflow@@QAE@PBD@Z                                  	@371
	??0CFltStackCheck@@QAE@ABV0@@Z                              	@372
	??0CFltStackCheck@@QAE@PBD@Z                                	@373
	??0CFltUnderflow@@QAE@ABV0@@Z                               	@374
	??0CFltUnderflow@@QAE@PBD@Z                                 	@375
	??0CHListNode@@QAE@AAVCHashTable@@@Z                        	@16
	??0CHListNode@@QAE@ABV0@@Z                                  	@17
	??0CHListNode@@QAE@PAXAAVCHashTable@@@Z                     	@18
	??0CHListNode@@QAE@XZ                                       	@19
	??0CHashNode@@QAE@AAVCHashTable@@I@Z                        	@20
	??0CHashNode@@QAE@ABV0@@Z                                   	@21
	??0CHashNode@@QAE@XZ                                        	@22
	??0CHashTable@@QAE@ABV0@@Z                                  	@23
	??0CHashTable@@QAE@P6APAXPAX@ZP6AH00@ZP6AI0@ZIW4tagCONTFLAGS@@@Z	@24
	??0CHashTable@@QAE@W4tagCONTFLAGS@@@Z                       	@25
	??0CIntDivideByZero@@QAE@ABV0@@Z                            	@376
	??0CIntDivideByZero@@QAE@PBD@Z                              	@377
	??0CIntException@@QAE@ABV0@@Z                               	@378
	??0CIntException@@QAE@PBD@Z                                 	@379
	??0CIntOverflow@@QAE@ABV0@@Z                                	@380
	??0CIntOverflow@@QAE@PBD@Z                                  	@381
	??0CKeyContainer@@QAE@ABV0@@Z                               	@26
	??0CKeyContainer@@QAE@P6APAXPAX@ZP6AH00@ZW4tagCONTFLAGS@@@Z 	@27
	??0CKeyContainer@@QAE@W4tagCONTFLAGS@@@Z                    	@28
	??0CKeyNode@@QAE@AAVCKeyContainer@@@Z                       	@29
	??0CKeyNode@@QAE@ABV0@@Z                                    	@30
	??0CKeyNode@@QAE@PAXAAVCKeyContainer@@@Z                    	@31
	??0CKeyNode@@QAE@XZ                                         	@32
	??0CListContainer@@QAE@ABV0@@Z                              	@33
	??0CListContainer@@QAE@W4tagCONTFLAGS@@@Z                   	@34
	??0CListNode@@QAE@ABV0@@Z                                   	@35
	??0CListNode@@QAE@PAX@Z                                     	@36
	??0CListNode@@QAE@XZ                                        	@37
	??0CLock@@IAE@AAVCNavigator@@@Z                             	@38
	??0CLock@@IAE@PAX@Z                                         	@39
	??0CLock@@QAE@ABV0@@Z                                       	@40
	??0CMathException@@QAE@ABV0@@Z                              	@382
	??0CMathException@@QAE@PBD@Z                                	@383
	??0CMutex@@QAE@H@Z												@41
	??0CNakedLock@@QAE@ABV0@@Z                                  	@42
	??0CNakedLock@@QAE@PAX@Z                                    	@43
	??0CNavigator@@IAE@AAV0@@Z                                  	@44
	??0CNavigator@@IAE@AAVCContainer@@@Z                        	@45
	??0CNode@@QAE@ABV0@@Z                                       	@46
	??0CNode@@QAE@PAX@Z                                         	@47
	??0CNode@@QAE@XZ                                            	@48
	??0CNoncontinueableException@@QAE@ABV0@@Z                   	@384
	??0CNoncontinueableException@@QAE@PBD@Z                     	@385
	??0CPrivInstruction@@QAE@ABV0@@Z                            	@386
	??0CPrivInstruction@@QAE@PBD@Z                              	@387
	??0CRing@@QAE@AAV0@@Z                                       	@49
	??0CRing@@QAE@AAVCSeqContainer@@@Z                          	@50
	??0CSeqContainer@@QAE@ABV0@@Z                               	@51
	??0CSeqContainer@@QAE@W4tagCONTFLAGS@@@Z                    	@52
	??0CSeqNode@@QAE@ABV0@@Z                                    	@53
	??0CSeqNode@@QAE@PAX@Z                                      	@54
	??0CSeqNode@@QAE@XZ                                         	@55
	??0CSingleStep@@QAE@ABV0@@Z                                 	@388
	??0CSingleStep@@QAE@PBD@Z                                   	@389
	??0CSyncMonitor@@IAE@H@Z                                    	@56
	??0CTable@@QAE@AAV0@@Z                                      	@57
	??0CTable@@QAE@AAVCKeyContainer@@@Z                         	@58
	??0CTree@@QAE@ABV0@@Z                                       	@59
	??0CTree@@QAE@P6APAXPAX@ZP6AH00@ZW4tagCONTFLAGS@@@Z         	@60
	??0CTree@@QAE@W4tagCONTFLAGS@@@Z                            	@61
	??0CWin32Exception@@QAE@ABV0@@Z                             	@390
	??0CWin32Exception@@QAE@PBD@Z                               	@391
	??0CWin32UserException@@QAE@ABV0@@Z                         	@392
	??0CWin32UserException@@QAE@IPBD@Z                          	@393
	??0DelTree@@QAE@ABV0@@Z                                     	@62
	??0DelTree@@QAE@P6APAXPAX@ZP6AH00@ZW4tagCONTFLAGS@@@Z       	@63
	??0UniqueTree@@QAE@ABV0@@Z                                  	@64
	??0UniqueTree@@QAE@P6APAXPAX@ZP6AH00@ZW4tagCONTFLAGS@@@Z    	@65
	??1CAccessViolation@@UAE@XZ                                 	@394
	??1CArrayBoundsExceeded@@UAE@XZ                             	@395
	??1CArrayContainer@@UAE@XZ                                  	@66
	??1CBreakPoint@@UAE@XZ                                      	@396
	??1CContainer@@UAE@XZ                                       	@67
	??1CCreator@@QAE@XZ                                         	@68
	??1CDCreator@@QAE@XZ                                        	@69
	??1CDatatypeMisalignment@@UAE@XZ                            	@397
	??1CFltDenormalOperand@@UAE@XZ                              	@398
	??1CFltDivideByZero@@UAE@XZ                                 	@399
	??1CFltException@@UAE@XZ                                    	@400
	??1CFltInexactResult@@UAE@XZ                                	@401
	??1CFltInvalidOperation@@UAE@XZ                             	@402
	??1CFltOverflow@@UAE@XZ                                     	@403
	??1CFltStackCheck@@UAE@XZ                                   	@404
	??1CFltUnderflow@@UAE@XZ                                    	@405
	??1CHashNode@@QAE@XZ                                        	@70
	??1CHashTable@@UAE@XZ                                       	@71
	??1CIntDivideByZero@@UAE@XZ                                 	@406
	??1CIntException@@UAE@XZ                                    	@407
	??1CIntOverflow@@UAE@XZ                                     	@408
	??1CKeyContainer@@UAE@XZ                                    	@72
	??1CListContainer@@UAE@XZ                                   	@73
	??1CLock@@QAE@XZ                                            	@74
	??1CMathException@@UAE@XZ                                   	@409
	??1CMutex@@QAE@XZ                                           	@75
	??1CNakedLock@@QAE@XZ                                       	@76
	??1CNavigator@@QAE@XZ                                       	@77
	??1CNoncontinueableException@@UAE@XZ                        	@410
	??1CPrivInstruction@@UAE@XZ                                 	@411
	??1CRing@@QAE@XZ                                            	@78
	??1CSeqContainer@@UAE@XZ                                    	@79
	??1CSingleStep@@UAE@XZ                                      	@412
	??1CSyncMonitor@@QAE@XZ                                     	@80
	??1CTable@@QAE@XZ                                           	@81
	??1CTree@@UAE@XZ                                            	@82
	??1CWin32Exception@@UAE@XZ                                  	@413
	??1CWin32UserException@@UAE@XZ                              	@414
	??1DelTree@@UAE@XZ                                          	@83
	??1UniqueTree@@UAE@XZ                                       	@84
	??4CAccessViolation@@QAEAAV0@ABV0@@Z                        	@415
	??4CArrayBoundsExceeded@@QAEAAV0@ABV0@@Z                    	@416
	??4CArrayContainer@@QAEAAV0@ABV0@@Z                         	@85
	??4CArrayNode@@QAEAAV0@AAV0@@Z                              	@86
	??4CBinaryNode@@QAEAAV0@AAV0@@Z                             	@87
	??4CBreakPoint@@QAEAAV0@ABV0@@Z                             	@417
	??4CContainer@@QAEAAV0@ABV0@@Z                              	@88
	??4CDatatypeMisalignment@@QAEAAV0@ABV0@@Z                   	@418
	??4CFltDenormalOperand@@QAEAAV0@ABV0@@Z                     	@419
	??4CFltDivideByZero@@QAEAAV0@ABV0@@Z                        	@420
	??4CFltException@@QAEAAV0@ABV0@@Z                           	@421
	??4CFltInexactResult@@QAEAAV0@ABV0@@Z                       	@422
	??4CFltInvalidOperation@@QAEAAV0@ABV0@@Z                    	@423
	??4CFltOverflow@@QAEAAV0@ABV0@@Z                            	@424
	??4CFltStackCheck@@QAEAAV0@ABV0@@Z                          	@425
	??4CFltUnderflow@@QAEAAV0@ABV0@@Z                           	@426
	??4CHListNode@@QAEAAV0@AAV0@@Z                              	@89
	??4CHashNode@@QAEAAV0@AAV0@@Z                               	@90
	??4CHashTable@@QAEAAV0@ABV0@@Z                              	@91
	??4CIntDivideByZero@@QAEAAV0@ABV0@@Z                        	@427
	??4CIntException@@QAEAAV0@ABV0@@Z                           	@428
	??4CIntOverflow@@QAEAAV0@ABV0@@Z                            	@429
	??4CKeyContainer@@QAEAAV0@ABV0@@Z                           	@92
	??4CKeyNode@@QAEAAV0@AAV0@@Z                                	@93
	??4CListContainer@@QAEAAV0@ABV0@@Z                          	@94
	??4CListNode@@QAEAAV0@AAV0@@Z                               	@95
	??4CLock@@QAEAAV0@ABV0@@Z                                   	@96
	??4CMathException@@QAEAAV0@ABV0@@Z                          	@430
	??4CMutex@@QAEAAV0@ABV0@@Z                                  	@97
	??4CNakedLock@@QAEAAV0@ABV0@@Z                              	@98
	??4CNode@@QAEAAV0@AAV0@@Z                                   	@99
	??4CNoncontinueableException@@QAEAAV0@ABV0@@Z               	@431
	??4CPrivInstruction@@QAEAAV0@ABV0@@Z                        	@432
	??4CSeqContainer@@QAEAAV0@ABV0@@Z                           	@100
	??4CSeqNode@@QAEAAV0@AAV0@@Z                                	@101
	??4CSingleStep@@QAEAAV0@ABV0@@Z                             	@433
	??4CSyncMonitor@@QAEAAV0@ABV0@@Z                            	@102
	??4CTree@@QAEAAV0@ABV0@@Z                                   	@103
	??4CWin32Exception@@QAEAAV0@ABV0@@Z                         	@434
	??4CWin32UserException@@QAEAAV0@ABV0@@Z                     	@435
	??4DelTree@@QAEAAV0@ABV0@@Z                                 	@104
	??4UniqueTree@@QAEAAV0@ABV0@@Z                              	@105
	??BCMutex@@QAEHXZ												@106
	??_7CAccessViolation@@6B@                                   	@436
	??_7CArrayBoundsExceeded@@6B@                               	@437
	??_7CArrayContainer@@6B@                                    	@107
	??_7CArrayNode@@6B@                                         	@108
	??_7CBinaryNode@@6B@                                        	@109
	??_7CBreakPoint@@6B@                                        	@438
	??_7CContainer@@6B@                                         	@110
	??_7CCreator@@6B@                                           	@111
	??_7CDCreator@@6B@                                          	@112
	??_7CDatatypeMisalignment@@6B@                              	@439
	??_7CFltDenormalOperand@@6B@                                	@440
	??_7CFltDivideByZero@@6B@                                   	@441
	??_7CFltException@@6B@                                      	@442
	??_7CFltInexactResult@@6B@                                  	@443
	??_7CFltInvalidOperation@@6B@                               	@444
	??_7CFltOverflow@@6B@                                       	@445
	??_7CFltStackCheck@@6B@                                     	@446
	??_7CFltUnderflow@@6B@                                      	@447
	??_7CHListNode@@6B@                                         	@113
	??_7CHashNode@@6B@                                          	@114
	??_7CHashTable@@6B@                                         	@115
	??_7CIntDivideByZero@@6B@                                   	@448
	??_7CIntException@@6B@                                      	@449
	??_7CIntOverflow@@6B@                                       	@450
	??_7CKeyContainer@@6B@                                      	@116
	??_7CKeyNode@@6B@                                           	@117
	??_7CListContainer@@6B@                                     	@118
	??_7CListNode@@6B@                                          	@119
	??_7CLock@@6B@                                              	@120
	??_7CMathException@@6B@                                     	@451
	??_7CNakedLock@@6B@                                         	@121
	??_7CNode@@6B@                                              	@122
	??_7CNoncontinueableException@@6B@                          	@452
	??_7CPrivInstruction@@6B@                                   	@453
	??_7CSeqContainer@@6B@                                      	@123
	??_7CSeqNode@@6B@                                           	@124
	??_7CSingleStep@@6B@                                        	@454
	??_7CTree@@6B@                                              	@125
	??_7CWin32Exception@@6B@                                    	@455
	??_7CWin32UserException@@6B@                                	@456
	??_7DelTree@@6B@                                            	@126
	??_7UniqueTree@@6B@                                         	@127
;	??_ECAccessViolation@@UAEPAXI@Z                             	@457
;	??_ECArrayBoundsExceeded@@UAEPAXI@Z                         	@458
;	??_ECArrayContainer@@UAEPAXI@Z                              	@128
;	??_ECBreakPoint@@UAEPAXI@Z                                  	@459
;	??_ECContainer@@UAEPAXI@Z                                   	@129
;	??_ECCreator@@QAEPAXI@Z                                     	@130
;	??_ECDCreator@@QAEPAXI@Z                                    	@131
;	??_ECDatatypeMisalignment@@UAEPAXI@Z                        	@460
;	??_ECFltDenormalOperand@@UAEPAXI@Z                          	@461
;	??_ECFltDivideByZero@@UAEPAXI@Z                             	@462
;	??_ECFltException@@UAEPAXI@Z                                	@463
;	??_ECFltInexactResult@@UAEPAXI@Z                            	@464
;	??_ECFltInvalidOperation@@UAEPAXI@Z                         	@465
;	??_ECFltOverflow@@UAEPAXI@Z                                 	@466
;	??_ECFltStackCheck@@UAEPAXI@Z                               	@467
;	??_ECFltUnderflow@@UAEPAXI@Z                                	@468
;	??_ECHashNode@@QAEPAXI@Z                                    	@132
;	??_ECHashTable@@UAEPAXI@Z                                   	@133
;	??_ECIntDivideByZero@@UAEPAXI@Z                             	@469
;	??_ECIntException@@UAEPAXI@Z                                	@470
;	??_ECIntOverflow@@UAEPAXI@Z                                 	@471
;	??_ECKeyContainer@@UAEPAXI@Z                                	@134
;	??_ECListContainer@@UAEPAXI@Z                               	@135
;	??_ECLock@@QAEPAXI@Z                                        	@136
;	??_ECMathException@@UAEPAXI@Z                               	@472
;	??_ECMutex@@QAEPAXI@Z                                       	@137
;	??_ECNakedLock@@QAEPAXI@Z                                   	@138
;	??_ECNavigator@@QAEPAXI@Z                                   	@139
;	??_ECNoncontinueableException@@UAEPAXI@Z                    	@473
;	??_ECPrivInstruction@@UAEPAXI@Z                             	@474
;	??_ECRing@@QAEPAXI@Z                                        	@140
;	??_ECSeqContainer@@UAEPAXI@Z                                	@141
;	??_ECSingleStep@@UAEPAXI@Z                                  	@475
;	??_ECSyncMonitor@@QAEPAXI@Z                                 	@142
;	??_ECTable@@QAEPAXI@Z                                       	@143
;	??_ECTree@@UAEPAXI@Z                                        	@144
;	??_ECWin32Exception@@UAEPAXI@Z                              	@476
;	??_ECWin32UserException@@UAEPAXI@Z                          	@477
;	??_EDelTree@@UAEPAXI@Z                                      	@145
;	??_EUniqueTree@@UAEPAXI@Z                                   	@146
	??_FCAccessViolation@@QAEXXZ                                	@507
	??_FCArrayBoundsExceeded@@QAEXXZ                            	@508
	??_FCArrayContainer@@QAEXXZ                                 	@147
	??_FCBreakPoint@@QAEXXZ                                     	@509
	??_FCContainer@@QAEXXZ                                      	@148
	??_FCDatatypeMisalignment@@QAEXXZ                           	@510
	??_FCFltDenormalOperand@@QAEXXZ                             	@511
	??_FCFltDivideByZero@@QAEXXZ                                	@512
	??_FCFltInexactResult@@QAEXXZ                               	@513
	??_FCFltInvalidOperation@@QAEXXZ                            	@514
	??_FCFltOverflow@@QAEXXZ                                    	@515
	??_FCFltStackCheck@@QAEXXZ                                  	@516
	??_FCFltUnderflow@@QAEXXZ                                   	@517
	??_FCHashTable@@QAEXXZ                                      	@149
	??_FCIntDivideByZero@@QAEXXZ                                	@518
	??_FCIntOverflow@@QAEXXZ                                    	@519
	??_FCKeyContainer@@QAEXXZ                                   	@150
	??_FCListContainer@@QAEXXZ                                  	@151
	??_FCMutex@@QAEXXZ                                          	@152
	??_FCNoncontinueableException@@QAEXXZ                       	@520
	??_FCPrivInstruction@@QAEXXZ                                	@521
	??_FCSeqContainer@@QAEXXZ                                   	@153
	??_FCSingleStep@@QAEXXZ                                     	@522
	??_FCSyncMonitor@@QAEXXZ                                    	@154
	??_FCTree@@QAEXXZ                                           	@155
;	??_GCAccessViolation@@UAEPAXI@Z                             	@478
;	??_GCArrayBoundsExceeded@@UAEPAXI@Z                         	@479
;	??_GCArrayContainer@@UAEPAXI@Z                              	@156
;	??_GCBreakPoint@@UAEPAXI@Z                                  	@480
;	??_GCContainer@@UAEPAXI@Z                                   	@157
;	??_GCCreator@@QAEPAXI@Z                                     	@158
;	??_GCDCreator@@QAEPAXI@Z                                    	@159
;	??_GCDatatypeMisalignment@@UAEPAXI@Z                        	@481
;	??_GCFltDenormalOperand@@UAEPAXI@Z                          	@482
;	??_GCFltDivideByZero@@UAEPAXI@Z                             	@483
;	??_GCFltException@@UAEPAXI@Z                                	@484
;	??_GCFltInexactResult@@UAEPAXI@Z                            	@485
;	??_GCFltInvalidOperation@@UAEPAXI@Z                         	@486
;	??_GCFltOverflow@@UAEPAXI@Z                                 	@487
;	??_GCFltStackCheck@@UAEPAXI@Z                               	@488
;	??_GCFltUnderflow@@UAEPAXI@Z                                	@489
;	??_GCHashNode@@QAEPAXI@Z                                    	@160
;	??_GCHashTable@@UAEPAXI@Z                                   	@161
;	??_GCIntDivideByZero@@UAEPAXI@Z                             	@490
;	??_GCIntException@@UAEPAXI@Z                                	@491
;	??_GCIntOverflow@@UAEPAXI@Z                                 	@492
;	??_GCKeyContainer@@UAEPAXI@Z                                	@162
;	??_GCListContainer@@UAEPAXI@Z                               	@163
;	??_GCLock@@QAEPAXI@Z                                        	@164
;	??_GCMathException@@UAEPAXI@Z                               	@493
;	??_GCMutex@@QAEPAXI@Z                                       	@165
;	??_GCNakedLock@@QAEPAXI@Z                                   	@166
;	??_GCNavigator@@QAEPAXI@Z                                   	@167
;	??_GCNoncontinueableException@@UAEPAXI@Z                    	@494
;	??_GCPrivInstruction@@UAEPAXI@Z                             	@495
;	??_GCRing@@QAEPAXI@Z                                        	@168
;	??_GCSeqContainer@@UAEPAXI@Z                                	@169
;	??_GCSingleStep@@UAEPAXI@Z                                  	@496
;	??_GCSyncMonitor@@QAEPAXI@Z                                 	@170
;	??_GCTable@@QAEPAXI@Z                                       	@171
;	??_GCTree@@UAEPAXI@Z                                        	@172
;	??_GCWin32Exception@@UAEPAXI@Z                              	@497
;	??_GCWin32UserException@@UAEPAXI@Z                          	@498
;	??_GDelTree@@UAEPAXI@Z                                      	@173
;	??_GUniqueTree@@UAEPAXI@Z                                   	@174
	?Alloc@CCreator@@QAEPAXI@Z                                  	@175
	?Alloc@CDCreator@@QAEPAXI@Z                                 	@176
	?Append@CHListNode@@QAEXPAV1@@Z                             	@177
	?Append@CListNode@@QAEXPAV1@@Z                              	@178
	?AssertFailedLine@@YGHPBD0H@Z									@179
	?AssertValid@CArrayContainer@@UBEXXZ                        	@180
	?AssertValid@CContainer@@UBEXXZ                             	@181
	?AssertValid@CCreator@@UBEXXZ                               	@182
	?AssertValid@CDCreator@@UBEXXZ                              	@183
	?AssertValid@CHashTable@@UBEXXZ                             	@184
	?AssertValid@CKeyContainer@@UBEXXZ                          	@185
	?AssertValid@CListContainer@@UBEXXZ                         	@186
	?AssertValid@CLock@@UBEXXZ                                  	@187
	?AssertValid@CTree@@UBEXXZ                                  	@188
	?AverageCompares@CHashTable@@QBEIXZ                         	@189
	?AverageCompares@CTree@@QBEIXZ                              	@190
	?Branch@CTree@@AAEPAVCBinaryNode@@PAV2@W4Richtung@@@Z       	@191
	?BucketsOfLength@CHashTable@@QBEII@Z                        	@192
	?Compare@CKeyNode@@QBEHPAX@Z                                	@193
	?ContFlags@CContainer@@QAEGW4tagCONTFLAGS@@@Z               	@194
	?CorrectParents@CTree@@AAEXXZ                               	@195
	?Count@CContainer@@QBEKXZ                                   	@196
	?CurrentAfterDelete@CArrayNode@@UAEPAVCNode@@PAV2@@Z        	@197
	?CurrentAfterDelete@CHashNode@@UAEPAVCNode@@PAV2@@Z         	@198
	?CurrentAfterDelete@CKeyNode@@UAEPAVCNode@@PAV2@@Z          	@199
	?CurrentAfterDelete@CListNode@@UAEPAVCNode@@PAV2@@Z         	@200
	?CurrentAfterDelete@CNode@@UAEPAV1@PAV1@@Z                  	@201
	?DataStructure@CArrayContainer@@MBEPAVCNode@@XZ             	@202
	?DataStructure@CContainer@@MBEPAVCNode@@XZ                  	@203
	?DataStructure@CHashTable@@MBEPAVCNode@@XZ                  	@204
	?DataStructure@CListContainer@@MBEPAVCNode@@XZ              	@205
	?DataStructure@CTree@@MBEPAVCNode@@XZ                       	@206
	?Delete@CArrayContainer@@MAEHPAVCNode@@@Z                   	@207
	?Delete@CContainer@@MAEHPAVCNode@@@Z                        	@208
	?Delete@CHashTable@@MAEHPAVCNode@@@Z                        	@209
	?Delete@CListContainer@@MAEHPAVCNode@@@Z                    	@210
	?Delete@CNavigator@@QAEHXZ                                  	@211
	?Delete@CTree@@MAEHPAVCNode@@@Z                             	@212
	?DeleteNotify@CNavigator@@AAEXPAVCNode@@@Z                  	@213
	?Depth@CTree@@AAEJPAVCBinaryNode@@W4Richtung@@@Z            	@214
	?EmptyBuckets@CHashTable@@QBEIXZ                            	@215
	?Every@CContainer@@UAEHP6AHPAX0@Z0@Z							@216
	?Every@CContainer@@UAEXP6AXPAX@Z@Z                          	@217
	?Every@CHashTable@@UAEHP6AHPAX0@Z0@Z							@218
	?Every@CHashTable@@UAEXP6AXPAX@Z@Z                          	@219
	?Every@CSeqContainer@@UAEHP6AHPAX0@Z0@Z							@220
	?Every@CSeqContainer@@UAEXP6AXPAX@Z@Z                       	@221
	?Every@CTree@@UAEHP6AHPAX0@Z0@Z                             	@222
	?Every@CTree@@UAEXP6AXPAX@Z@Z                               	@223
	?EveryDelete@CContainer@@UAEHXZ                             	@224
	?ExtTrace@@YAXPBDZZ                                         	@225
	?Find@CBinaryNode@@UBEPAVCKeyNode@@PAX@Z                    	@226
	?Find@CHListNode@@UBEPAVCKeyNode@@PAX@Z                     	@227
	?Find@CHashNode@@UBEPAVCKeyNode@@PAX@Z                      	@228
	?Find@CKeyNode@@UBEPAV1@PAX@Z                               	@229
	?Find@CTable@@QAEHPAX@Z                                     	@230
	?FindFirst@CKeyNode@@QBEPAV1@PAX@Z                          	@231
	?FindFirst@CTable@@QAEHPAX@Z                                	@232
	?FindNext@CHListNode@@UBEPAVCKeyNode@@PAX@Z                 	@233
	?FindNext@CKeyNode@@UBEPAV1@PAX@Z                           	@234
	?FindNext@CTable@@QAEHPAX@Z                                 	@235
	?FindPrev@CHListNode@@UBEPAVCKeyNode@@PAX@Z                 	@236
	?FindPrev@CKeyNode@@UBEPAV1@PAX@Z                           	@237
	?FindPrev@CTable@@QAEHPAX@Z                                 	@238
	?First@CNavigator@@QAEHXZ                                   	@239
	?First@CRing@@QAEHXZ                                        	@240
	?FirstNode@CContainer@@MBEPAVCNode@@XZ                      	@241
	?FirstNode@CHashTable@@MBEPAVCNode@@XZ                      	@242
	?FirstNode@CTree@@MBEPAVCNode@@XZ                           	@243
	?Fold@CTree@@AAEPAVCBinaryNode@@PAV2@W4Richtung@@@Z         	@244
	?GetContainer@CKeyNode@@QBEAAVCKeyContainer@@XZ             	@245
	?GetContainer@CNavigator@@IBEAAVCContainer@@XZ              	@246
	?GetHandle@CLock@@IAEAAPAXXZ                                	@247
	?GetHandle@CNavigator@@IBEPAXXZ                             	@248
	?GetHandle@CNode@@QBEPAXXZ                                  	@249
	?GetNext@CHListNode@@QBEPAV1@XZ                             	@250
	?GetNext@CListNode@@QBEPAV1@XZ                              	@251
	?GetNode@CHashNode@@QBEPAVCHListNode@@I@Z                   	@252
	?GetPrev@CHListNode@@QBEPAV1@XZ                             	@253
	?GetPrev@CListNode@@QBEPAV1@XZ                              	@254
	?GetRank@CRing@@QBEKXZ                                      	@255
	?Goto@CRing@@QAEHK@Z                                        	@256
	?Graft@CBinaryNode@@QAEXPAV1@0@Z                            	@257
	?Handle@CMutex@@QBEPAXXZ                                    	@258
	?InOrder@CTree@@AAEHPAVCBinaryNode@@P6AHPAX1@Z1@Z           	@259
	?InOrder@CTree@@AAEXPAVCBinaryNode@@P6AXPAX@Z@Z             	@260
	?Insert@CArrayContainer@@MAEHPAX0@Z                         	@261
	?Insert@CContainer@@MAEHPAX0@Z                              	@262
	?Insert@CCreator@@QAEXXZ                                    	@263
	?Insert@CDCreator@@QAEHXZ                                   	@264
	?Insert@CHListNode@@QAEXPAV1@@Z                             	@265
	?Insert@CHashTable@@MAEHPAX0@Z                              	@266
	?Insert@CListContainer@@MAEHPAX0@Z                          	@267
	?Insert@CTree@@MAEHPAX0@Z                                   	@268
	?InsertPointer@CCreator@@QAEPAXPAX@Z                        	@269
	?IntCmp@@YAHPAX0@Z                                          	@270
	?IntHash@@YAIPAX@Z                                          	@271
	?IsWin31@@YGHXZ                                             	@272
	?IsWin32s@@YGHXZ                                            	@273
	?IsWin40@@YGHXZ                                             	@274
	?IsWinNT@@YGHXZ                                             	@275
	?Last@CNavigator@@QAEHXZ                                    	@276
	?Last@CRing@@QAEHXZ                                         	@277
	?LastNode@CArrayContainer@@MBEPAVCNode@@XZ                  	@278
	?LastNode@CContainer@@MBEPAVCNode@@XZ                       	@279
	?LastNode@CHashTable@@MBEPAVCNode@@XZ                       	@280
	?LastNode@CListContainer@@MBEPAVCNode@@XZ                   	@281
	?LastNode@CTree@@MBEPAVCNode@@XZ                            	@282
	?Left@CBinaryNode@@QBEPAV1@XZ                               	@283
	?LeftMost@CBinaryNode@@QBEPAV1@XZ                           	@284
	?LeftMostOrRight@CBinaryNode@@QBEPAV1@XZ                    	@285
	?Linear@CTree@@AAEPAVCBinaryNode@@XZ                        	@286
	?Lock@CNode@@QAEXXZ                                         	@287
	?Locked@CNode@@QBEHXZ                                       	@288
	?Next@CArrayNode@@UBEPAVCSeqNode@@K@Z                       	@289
	?Next@CBinaryNode@@UBEPAVCKeyNode@@XZ                       	@290
	?Next@CHListNode@@UBEPAVCKeyNode@@XZ                        	@291
	?Next@CHashNode@@UBEPAVCKeyNode@@XZ                         	@292
	?Next@CKeyNode@@UBEPAV1@XZ                                  	@293
	?Next@CListNode@@UBEPAVCSeqNode@@K@Z                        	@294
	?Next@CRing@@QAEHXZ                                         	@295
	?Next@CSeqNode@@UBEPAV1@K@Z                                 	@296
	?Next@CTable@@QAEHXZ                                        	@297
	?Optimize@CTree@@QAEXXZ                                     	@298
	?P@CLock@@IAEPAXXZ                                          	@299
	?P@CNakedLock@@QAEPAXXZ                                     	@300
	?Parent@CBinaryNode@@QBEPAV1@XZ                             	@301
	?PostOrder@CTree@@AAEXPAVCBinaryNode@@P6AXPAX@Z@Z           	@302
	?PreOrder@CTree@@AAEXPAVCBinaryNode@@P6AXPAX@Z@Z            	@303
	?Prev@CArrayNode@@UBEPAVCSeqNode@@K@Z                       	@304
	?Prev@CBinaryNode@@UBEPAVCKeyNode@@XZ                       	@305
	?Prev@CHListNode@@UBEPAVCKeyNode@@XZ                        	@306
	?Prev@CHashNode@@UBEPAVCKeyNode@@XZ                         	@307
	?Prev@CKeyNode@@UBEPAV1@XZ                                  	@308
	?Prev@CListNode@@UBEPAVCSeqNode@@K@Z                        	@309
	?Prev@CRing@@QAEHXZ                                         	@310
	?Prev@CSeqNode@@UBEPAV1@K@Z                                 	@311
	?Prev@CTable@@QAEHXZ                                        	@312
	?ReInsert@CTable@@QAEHPAXG@Z                                	@313
	?ReInsert@CTree@@QAEPAVCNode@@PAVCBinaryNode@@PAXG@Z        	@314
	?ReSize@CHashNode@@IAEXI@Z                                  	@315
	?Register@CContainer@@AAEXPAVCNavigator@@@Z                 	@316
	?Remove@CHListNode@@QAEXXZ                                  	@317
	?Remove@CListNode@@QAEXXZ                                   	@318
	?Reset@CNavigator@@QAEXXZ                                   	@319
	?ResetTranslator@CWin32Exception@@SAHXZ                     	@499
	?Resize@CArrayContainer@@QAEHI@Z                            	@320
	?Revoke@CCreator@@QAEXXZ                                    	@321
	?Right@CBinaryNode@@QBEPAV1@XZ                              	@322
	?RightMost@CBinaryNode@@QBEPAV1@XZ                          	@323
	?SetContainer@CKeyNode@@QAEXPAVCKeyContainer@@@Z            	@324
	?SetHandle@CNode@@QAEXPAX@Z                                 	@325
	?SetLeft@CBinaryNode@@QAEXPAV1@@Z                           	@326
	?SetNext@CHListNode@@QAEXPAV1@@Z                            	@327
	?SetNext@CListNode@@QAEXPAV1@@Z                             	@328
	?SetNode@CHashNode@@QAEXIPAVCHListNode@@@Z                  	@329
	?SetParent@CBinaryNode@@QAEXPAV1@@Z                         	@330
	?SetPrev@CHListNode@@QAEXPAV1@@Z                            	@331
	?SetPrev@CListNode@@QAEXPAV1@@Z                             	@332
	?SetRight@CBinaryNode@@QAEXPAV1@@Z                          	@333
	?SetTranslator@CWin32Exception@@SAHXZ                       	@500
	?Size@CArrayContainer@@QBEIXZ                               	@334
	?Size@CHashNode@@QBEIXZ                                     	@335
	?Size@CHashTable@@QBEIXZ                                    	@336
	?Special@CTree@@AAEPAVCBinaryNode@@PAV2@W4Richtung@@@Z      	@337
	?StrCmp@@YAHPAX0@Z                                          	@338
	?StrHash@@YAIPAX@Z                                          	@339
	?TIsValidAddress@@YGHPBXIH@Z									@340
	?TIsValidIUnknown@@YGHPBX@Z										@341
	?TIsValidString@@YGHPBDH@Z										@342
	?Translate@CWin32Exception@@SAIII@Z                         	@501
	?Translator@CWin32Exception@@SAXIPAU_EXCEPTION_POINTERS@@@Z 	@502
	?Unlock@CLock@@IAEXXZ                                       	@343
	?Unlock@CNode@@QAEXXZ                                       	@344
	?Unregister@CContainer@@AAEXPAVCNavigator@@@Z               	@345
	?UserDelete@CContainer@@MAEXPAX@Z                           	@346
	?UserDelete@DelTree@@MAEXPAX@Z                              	@347
	?Valid@CLock@@QAEHXZ                                        	@348
	?Valid@CNavigator@@QBEHXZ                                   	@349
	?ValidateTree@CTree@@AAEHPAVCBinaryNode@@@Z                 	@350
	?_exception_code@CWin32UserException@@QBEIXZ                	@503
	?lock@CLock@@IAEXXZ                                         	@351
	?m_fInstalled@CWin32Exception@@0HA                          	@504
	?m_pNextProc@CWin32Exception@@0P6AXIPAU_EXCEPTION_POINTERS@@@ZA	@505
	?m_uiTranslated@CWin32Exception@@0IA                        	@506
	?VerboseAssertFailedLine@@YGHPBD0H@Z                            @523
;
; #HK970902
	?IsWin41@@YGHXZ                                             	@524
;
; #HK970905
	??0COptTree@@QAE@ABV0@@Z                                    	@525
	??0COptTree@@QAE@P6APAXPAX@ZP6AH00@ZW4tagCONTFLAGS@@J@Z     	@526
	??0COptTree@@QAE@W4tagCONTFLAGS@@J@Z                        	@527
	??1COptTree@@UAE@XZ                                         	@528
	??4COptTree@@QAEAAV0@ABV0@@Z                                	@529
	??_7COptTree@@6B@                                           	@530
;	??_ECOptTree@@UAEPAXI@Z                                     	@531
	??_FCOptTree@@QAEXXZ                                        	@532
;	??_GCOptTree@@UAEPAXI@Z                                     	@533
	?Insert@COptTree@@UAEHPAX0@Z                                	@534
;
; #HK970908
	?m_fP5TickerAvailable@COptTree@@1HA                         	@535
	??0P5_Ticker@@QAE@ABV0@@Z                                   	@536
	??0P5_Ticker@@QAE@XZ                                        	@537
	??1P5_Ticker@@QAE@XZ                                        	@538
	??4P5_Ticker@@QAEAAV0@ABT_ULARGE_INTEGER@@@Z                	@539
	??4P5_Ticker@@QAEAAV0@ABV0@@Z                               	@540
	??GP5_Ticker@@QBE?AV0@ABV0@@Z                               	@541
	??HP5_Ticker@@QBE?AV0@ABV0@@Z                               	@542
;	??_EP5_Ticker@@QAEPAXI@Z                                    	@543
;	??_GP5_Ticker@@QAEPAXI@Z                                    	@544
	?Check_Has_RDTSC@P5_Ticker@@ABEHXZ                          	@545
	?Get_Frequency@P5_Ticker@@QBENAANKI@Z                       	@546
	?Get_Time@P5_Ticker@@QAEAAV1@XZ                             	@547
	?Has_RDTSC@P5_Ticker@@0HA                                   	@548
	?P5_Ticker_Available@P5_Ticker@@QBEHXZ                      	@549
	?To_Ticks@P5_Ticker@@QBE?AT_ULARGE_INTEGER@@XZ              	@550
;
; #HK980223
	?IsWin50@@YGHXZ                                             	@551
;
; #HK981012
	?Lock@CMutex@@QAEXXZ                                    	@130
	?Unlock@CMutex@@QAEXXZ                                  	@131
