DESCRIPTION     'TRIAS® Containerbibliothek, Copyright(C) 1991 - 1997 uve GmbH Fernerkundungszentrum Potsdam'

EXPORTS
	??0CAccessViolation@@QAE@ABV0@@Z                            	@334
	??0CAccessViolation@@QAE@PBD@Z                              	@335
	??0CArrayBoundsExceeded@@QAE@ABV0@@Z                        	@336
	??0CArrayBoundsExceeded@@QAE@PBD@Z                          	@337
	??0CArrayContainer@@QAE@ABV0@@Z                             	@1
	??0CArrayContainer@@QAE@IW4tagCONTFLAGS@@@Z                 	@2
	??0CArrayNode@@QAE@ABV0@@Z                                  	@3
	??0CArrayNode@@QAE@PAX@Z                                    	@4
	??0CArrayNode@@QAE@XZ                                       	@5
	??0CBinaryNode@@QAE@AAVCTree@@@Z                            	@6
	??0CBinaryNode@@QAE@ABV0@@Z                                 	@7
	??0CBinaryNode@@QAE@PAXAAVCTree@@PAV0@@Z                    	@8
	??0CBinaryNode@@QAE@XZ                                      	@9
	??0CBreakPoint@@QAE@ABV0@@Z                                 	@338
	??0CBreakPoint@@QAE@PBD@Z                                   	@339
	??0CContainer@@QAE@ABV0@@Z                                  	@10
	??0CContainer@@QAE@W4tagCONTFLAGS@@@Z                       	@11
	??0CCreator@@QAE@AAVCContainer@@@Z                          	@12
	??0CDCreator@@QAE@AAVCContainer@@0@Z                        	@13
	??0CDatatypeMisalignment@@QAE@ABV0@@Z                       	@340
	??0CDatatypeMisalignment@@QAE@PBD@Z                         	@341
	??0CFltDenormalOperand@@QAE@ABV0@@Z                         	@342
	??0CFltDenormalOperand@@QAE@PBD@Z                           	@343
	??0CFltDivideByZero@@QAE@ABV0@@Z                            	@344
	??0CFltDivideByZero@@QAE@PBD@Z                              	@345
	??0CFltException@@QAE@ABV0@@Z                               	@346
	??0CFltException@@QAE@PBD@Z                                 	@347
	??0CFltInexactResult@@QAE@ABV0@@Z                           	@348
	??0CFltInexactResult@@QAE@PBD@Z                             	@349
	??0CFltInvalidOperation@@QAE@ABV0@@Z                        	@350
	??0CFltInvalidOperation@@QAE@PBD@Z                          	@351
	??0CFltOverflow@@QAE@ABV0@@Z                                	@352
	??0CFltOverflow@@QAE@PBD@Z                                  	@353
	??0CFltStackCheck@@QAE@ABV0@@Z                              	@354
	??0CFltStackCheck@@QAE@PBD@Z                                	@355
	??0CFltUnderflow@@QAE@ABV0@@Z                               	@356
	??0CFltUnderflow@@QAE@PBD@Z                                 	@357
	??0CHListNode@@QAE@AAVCHashTable@@@Z                        	@14
	??0CHListNode@@QAE@ABV0@@Z                                  	@15
	??0CHListNode@@QAE@PAXAAVCHashTable@@@Z                     	@16
	??0CHListNode@@QAE@XZ                                       	@17
	??0CHashNode@@QAE@AAVCHashTable@@I@Z                        	@18
	??0CHashNode@@QAE@ABV0@@Z                                   	@19
	??0CHashNode@@QAE@XZ                                        	@20
	??0CHashTable@@QAE@ABV0@@Z                                  	@21
	??0CHashTable@@QAE@P6APAXPAX@ZP6AH00@ZP6AI0@ZIW4tagCONTFLAGS@@@Z	@22
	??0CHashTable@@QAE@W4tagCONTFLAGS@@@Z                       	@23
	??0CIntDivideByZero@@QAE@ABV0@@Z                            	@358
	??0CIntDivideByZero@@QAE@PBD@Z                              	@359
	??0CIntException@@QAE@ABV0@@Z                               	@360
	??0CIntException@@QAE@PBD@Z                                 	@361
	??0CIntOverflow@@QAE@ABV0@@Z                                	@362
	??0CIntOverflow@@QAE@PBD@Z                                  	@363
	??0CKeyContainer@@QAE@ABV0@@Z                               	@24
	??0CKeyContainer@@QAE@P6APAXPAX@ZP6AH00@ZW4tagCONTFLAGS@@@Z 	@25
	??0CKeyContainer@@QAE@W4tagCONTFLAGS@@@Z                    	@26
	??0CKeyNode@@QAE@AAVCKeyContainer@@@Z                       	@27
	??0CKeyNode@@QAE@ABV0@@Z                                    	@28
	??0CKeyNode@@QAE@PAXAAVCKeyContainer@@@Z                    	@29
	??0CKeyNode@@QAE@XZ                                         	@30
	??0CListContainer@@QAE@ABV0@@Z                              	@31
	??0CListContainer@@QAE@W4tagCONTFLAGS@@@Z                   	@32
	??0CListNode@@QAE@ABV0@@Z                                   	@33
	??0CListNode@@QAE@PAX@Z                                     	@34
	??0CListNode@@QAE@XZ                                        	@35
	??0CLock@@IAE@AAVCNavigator@@@Z                             	@36
	??0CLock@@IAE@PAX@Z                                         	@37
	??0CMathException@@QAE@ABV0@@Z                              	@364
	??0CMathException@@QAE@PBD@Z                                	@365
	??0CMutex@@QAE@H@Z                                          	@38
	??0CNakedLock@@QAE@PAX@Z                                    	@39
	??0CNavigator@@IAE@AAV0@@Z                                  	@40
	??0CNavigator@@IAE@AAVCContainer@@@Z                        	@41
	??0CNode@@QAE@ABV0@@Z                                       	@42
	??0CNode@@QAE@PAX@Z                                         	@43
	??0CNode@@QAE@XZ                                            	@44
	??0CNoncontinueableException@@QAE@ABV0@@Z                   	@366
	??0CNoncontinueableException@@QAE@PBD@Z                     	@367
	??0CPrivInstruction@@QAE@ABV0@@Z                            	@368
	??0CPrivInstruction@@QAE@PBD@Z                              	@369
	??0CRing@@QAE@AAV0@@Z                                       	@45
	??0CRing@@QAE@AAVCSeqContainer@@@Z                          	@46
	??0CSeqContainer@@QAE@ABV0@@Z                               	@47
	??0CSeqContainer@@QAE@W4tagCONTFLAGS@@@Z                    	@48
	??0CSeqNode@@QAE@ABV0@@Z                                    	@49
	??0CSeqNode@@QAE@PAX@Z                                      	@50
	??0CSeqNode@@QAE@XZ                                         	@51
	??0CSingleStep@@QAE@ABV0@@Z                                 	@370
	??0CSingleStep@@QAE@PBD@Z                                   	@371
	??0CSyncMonitor@@IAE@H@Z                                    	@52
	??0CTable@@QAE@AAV0@@Z                                      	@53
	??0CTable@@QAE@AAVCKeyContainer@@@Z                         	@54
	??0CTree@@QAE@ABV0@@Z                                       	@55
	??0CTree@@QAE@P6APAXPAX@ZP6AH00@ZW4tagCONTFLAGS@@@Z         	@56
	??0CTree@@QAE@W4tagCONTFLAGS@@@Z                            	@57
	??0CWin32Exception@@QAE@ABV0@@Z                             	@372
	??0CWin32Exception@@QAE@PBD@Z                               	@373
	??0CWin32UserException@@QAE@ABV0@@Z                         	@374
	??0CWin32UserException@@QAE@IPBD@Z                          	@375
	??0DelTree@@QAE@ABV0@@Z                                     	@58
	??0DelTree@@QAE@P6APAXPAX@ZP6AH00@ZW4tagCONTFLAGS@@@Z       	@59
	??0UniqueTree@@QAE@ABV0@@Z                                  	@60
	??0UniqueTree@@QAE@P6APAXPAX@ZP6AH00@ZW4tagCONTFLAGS@@@Z    	@61
	??1CAccessViolation@@UAE@XZ                                 	@376
	??1CArrayBoundsExceeded@@UAE@XZ                             	@377
	??1CArrayContainer@@UAE@XZ                                  	@62
	??1CBreakPoint@@UAE@XZ                                      	@378
	??1CContainer@@UAE@XZ                                       	@63
	??1CCreator@@QAE@XZ                                         	@64
	??1CDCreator@@QAE@XZ                                        	@65
	??1CDatatypeMisalignment@@UAE@XZ                            	@379
	??1CFltDenormalOperand@@UAE@XZ                              	@380
	??1CFltDivideByZero@@UAE@XZ                                 	@381
	??1CFltException@@UAE@XZ                                    	@382
	??1CFltInexactResult@@UAE@XZ                                	@383
	??1CFltInvalidOperation@@UAE@XZ                             	@384
	??1CFltOverflow@@UAE@XZ                                     	@385
	??1CFltStackCheck@@UAE@XZ                                   	@386
	??1CFltUnderflow@@UAE@XZ                                    	@387
	??1CHashNode@@QAE@XZ                                        	@66
	??1CHashTable@@UAE@XZ                                       	@67
	??1CIntDivideByZero@@UAE@XZ                                 	@388
	??1CIntException@@UAE@XZ                                    	@389
	??1CIntOverflow@@UAE@XZ                                     	@390
	??1CKeyContainer@@UAE@XZ                                    	@68
	??1CListContainer@@UAE@XZ                                   	@69
	??1CLock@@QAE@XZ                                            	@70
	??1CMathException@@UAE@XZ                                   	@391
	??1CMutex@@QAE@XZ                                           	@71
	??1CNakedLock@@QAE@XZ                                       	@72
	??1CNavigator@@QAE@XZ                                       	@73
	??1CNoncontinueableException@@UAE@XZ                        	@392
	??1CPrivInstruction@@UAE@XZ                                 	@393
	??1CRing@@QAE@XZ                                            	@74
	??1CSeqContainer@@UAE@XZ                                    	@75
	??1CSingleStep@@UAE@XZ                                      	@394
	??1CSyncMonitor@@QAE@XZ                                     	@76
	??1CTable@@QAE@XZ                                           	@77
	??1CTree@@UAE@XZ                                            	@78
	??1CWin32Exception@@UAE@XZ                                  	@395
	??1CWin32UserException@@UAE@XZ                              	@396
	??1DelTree@@UAE@XZ                                          	@79
	??1UniqueTree@@UAE@XZ                                       	@80
	??4CAccessViolation@@QAEAAV0@ABV0@@Z                        	@397
	??4CArrayBoundsExceeded@@QAEAAV0@ABV0@@Z                    	@398
	??4CArrayContainer@@QAEAAV0@ABV0@@Z                         	@81
	??4CArrayNode@@QAEAAV0@AAV0@@Z                              	@82
	??4CBinaryNode@@QAEAAV0@AAV0@@Z                             	@83
	??4CBreakPoint@@QAEAAV0@ABV0@@Z                             	@399
	??4CContainer@@QAEAAV0@ABV0@@Z                              	@84
	??4CDatatypeMisalignment@@QAEAAV0@ABV0@@Z                   	@400
	??4CFltDenormalOperand@@QAEAAV0@ABV0@@Z                     	@401
	??4CFltDivideByZero@@QAEAAV0@ABV0@@Z                        	@402
	??4CFltException@@QAEAAV0@ABV0@@Z                           	@403
	??4CFltInexactResult@@QAEAAV0@ABV0@@Z                       	@404
	??4CFltInvalidOperation@@QAEAAV0@ABV0@@Z                    	@405
	??4CFltOverflow@@QAEAAV0@ABV0@@Z                            	@406
	??4CFltStackCheck@@QAEAAV0@ABV0@@Z                          	@407
	??4CFltUnderflow@@QAEAAV0@ABV0@@Z                           	@408
	??4CHListNode@@QAEAAV0@AAV0@@Z                              	@85
	??4CHashNode@@QAEAAV0@AAV0@@Z                               	@86
	??4CHashTable@@QAEAAV0@ABV0@@Z                              	@87
	??4CIntDivideByZero@@QAEAAV0@ABV0@@Z                        	@409
	??4CIntException@@QAEAAV0@ABV0@@Z                           	@410
	??4CIntOverflow@@QAEAAV0@ABV0@@Z                            	@411
	??4CKeyContainer@@QAEAAV0@ABV0@@Z                           	@88
	??4CKeyNode@@QAEAAV0@AAV0@@Z                                	@89
	??4CListContainer@@QAEAAV0@ABV0@@Z                          	@90
	??4CListNode@@QAEAAV0@AAV0@@Z                               	@91
	??4CLock@@QAEAAV0@ABV0@@Z                                   	@92
	??4CMathException@@QAEAAV0@ABV0@@Z                          	@412
	??4CMutex@@QAEAAV0@ABV0@@Z                                  	@93
	??4CNakedLock@@QAEAAV0@ABV0@@Z                              	@94
	??4CNode@@QAEAAV0@AAV0@@Z                                   	@95
	??4CNoncontinueableException@@QAEAAV0@ABV0@@Z               	@413
	??4CPrivInstruction@@QAEAAV0@ABV0@@Z                        	@414
	??4CSeqContainer@@QAEAAV0@ABV0@@Z                           	@96
	??4CSeqNode@@QAEAAV0@AAV0@@Z                                	@97
	??4CSingleStep@@QAEAAV0@ABV0@@Z                             	@415
	??4CSyncMonitor@@QAEAAV0@ABV0@@Z                            	@98
	??4CTree@@QAEAAV0@ABV0@@Z                                   	@99
	??4CWin32Exception@@QAEAAV0@ABV0@@Z                         	@416
	??4CWin32UserException@@QAEAAV0@ABV0@@Z                     	@417
	??4DelTree@@QAEAAV0@ABV0@@Z                                 	@100
	??4UniqueTree@@QAEAAV0@ABV0@@Z                              	@101
	??BCMutex@@QAEHXZ                                           	@102
	??_7CAccessViolation@@6B@                                   	@418
	??_7CArrayBoundsExceeded@@6B@                               	@419
	??_7CArrayContainer@@6B@                                    	@103
	??_7CArrayNode@@6B@                                         	@104
	??_7CBinaryNode@@6B@                                        	@105
	??_7CBreakPoint@@6B@                                        	@420
	??_7CContainer@@6B@                                         	@106
	??_7CDatatypeMisalignment@@6B@                              	@421
	??_7CFltDenormalOperand@@6B@                                	@422
	??_7CFltDivideByZero@@6B@                                   	@423
	??_7CFltException@@6B@                                      	@424
	??_7CFltInexactResult@@6B@                                  	@425
	??_7CFltInvalidOperation@@6B@                               	@426
	??_7CFltOverflow@@6B@                                       	@427
	??_7CFltStackCheck@@6B@                                     	@428
	??_7CFltUnderflow@@6B@                                      	@429
	??_7CHListNode@@6B@                                         	@107
	??_7CHashNode@@6B@                                          	@108
	??_7CHashTable@@6B@                                         	@109
	??_7CIntDivideByZero@@6B@                                   	@430
	??_7CIntException@@6B@                                      	@431
	??_7CIntOverflow@@6B@                                       	@432
	??_7CKeyContainer@@6B@                                      	@110
	??_7CKeyNode@@6B@                                           	@111
	??_7CListContainer@@6B@                                     	@112
	??_7CListNode@@6B@                                          	@113
	??_7CMathException@@6B@                                     	@433
	??_7CNode@@6B@                                              	@114
	??_7CNoncontinueableException@@6B@                          	@434
	??_7CPrivInstruction@@6B@                                   	@435
	??_7CSeqContainer@@6B@                                      	@115
	??_7CSeqNode@@6B@                                           	@116
	??_7CSingleStep@@6B@                                        	@436
	??_7CTree@@6B@                                              	@117
	??_7CWin32Exception@@6B@                                    	@437
	??_7CWin32UserException@@6B@                                	@438
	??_7DelTree@@6B@                                            	@118
	??_7UniqueTree@@6B@                                         	@119
	??_ECAccessViolation@@UAEPAXI@Z                             	@439
	??_ECArrayBoundsExceeded@@UAEPAXI@Z                         	@440
	??_ECArrayContainer@@UAEPAXI@Z                              	@120
	??_ECBreakPoint@@UAEPAXI@Z                                  	@441
	??_ECContainer@@UAEPAXI@Z                                   	@121
	??_ECCreator@@QAEPAXI@Z                                     	@122
	??_ECDCreator@@QAEPAXI@Z                                    	@123
	??_ECDatatypeMisalignment@@UAEPAXI@Z                        	@442
	??_ECFltDenormalOperand@@UAEPAXI@Z                          	@443
	??_ECFltDivideByZero@@UAEPAXI@Z                             	@444
	??_ECFltException@@UAEPAXI@Z                                	@445
	??_ECFltInexactResult@@UAEPAXI@Z                            	@446
	??_ECFltInvalidOperation@@UAEPAXI@Z                         	@447
	??_ECFltOverflow@@UAEPAXI@Z                                 	@448
	??_ECFltStackCheck@@UAEPAXI@Z                               	@449
	??_ECFltUnderflow@@UAEPAXI@Z                                	@450
	??_ECHashNode@@QAEPAXI@Z                                    	@124
	??_ECHashTable@@UAEPAXI@Z                                   	@125
	??_ECIntDivideByZero@@UAEPAXI@Z                             	@451
	??_ECIntException@@UAEPAXI@Z                                	@452
	??_ECIntOverflow@@UAEPAXI@Z                                 	@453
	??_ECKeyContainer@@UAEPAXI@Z                                	@126
	??_ECListContainer@@UAEPAXI@Z                               	@127
	??_ECLock@@QAEPAXI@Z                                        	@128
	??_ECMathException@@UAEPAXI@Z                               	@454
	??_ECMutex@@QAEPAXI@Z                                       	@129
	??_ECNakedLock@@QAEPAXI@Z                                   	@130
	??_ECNavigator@@QAEPAXI@Z                                   	@131
	??_ECNoncontinueableException@@UAEPAXI@Z                    	@455
	??_ECPrivInstruction@@UAEPAXI@Z                             	@456
	??_ECRing@@QAEPAXI@Z                                        	@132
	??_ECSeqContainer@@UAEPAXI@Z                                	@133
	??_ECSingleStep@@UAEPAXI@Z                                  	@457
	??_ECSyncMonitor@@QAEPAXI@Z                                 	@134
	??_ECTable@@QAEPAXI@Z                                       	@135
	??_ECTree@@UAEPAXI@Z                                        	@136
	??_ECWin32Exception@@UAEPAXI@Z                              	@458
	??_ECWin32UserException@@UAEPAXI@Z                          	@459
	??_EDelTree@@UAEPAXI@Z                                      	@137
	??_EUniqueTree@@UAEPAXI@Z                                   	@138
	??_FCAccessViolation@@QAEXXZ                                	@489
	??_FCArrayBoundsExceeded@@QAEXXZ                            	@490
	??_FCArrayContainer@@QAEXXZ                                 	@139
	??_FCBreakPoint@@QAEXXZ                                     	@491
	??_FCContainer@@QAEXXZ                                      	@140
	??_FCDatatypeMisalignment@@QAEXXZ                           	@492
	??_FCFltDenormalOperand@@QAEXXZ                             	@493
	??_FCFltDivideByZero@@QAEXXZ                                	@494
	??_FCFltInexactResult@@QAEXXZ                               	@495
	??_FCFltInvalidOperation@@QAEXXZ                            	@496
	??_FCFltOverflow@@QAEXXZ                                    	@497
	??_FCFltStackCheck@@QAEXXZ                                  	@498
	??_FCFltUnderflow@@QAEXXZ                                   	@499
	??_FCHashTable@@QAEXXZ                                      	@141
	??_FCIntDivideByZero@@QAEXXZ                                	@500
	??_FCIntOverflow@@QAEXXZ                                    	@501
	??_FCKeyContainer@@QAEXXZ                                   	@142
	??_FCListContainer@@QAEXXZ                                  	@143
	??_FCMutex@@QAEXXZ                                          	@144
	??_FCNoncontinueableException@@QAEXXZ                       	@502
	??_FCPrivInstruction@@QAEXXZ                                	@503
	??_FCSeqContainer@@QAEXXZ                                   	@145
	??_FCSingleStep@@QAEXXZ                                     	@504
	??_FCSyncMonitor@@QAEXXZ                                    	@146
	??_FCTree@@QAEXXZ                                           	@147
	??_GCAccessViolation@@UAEPAXI@Z                             	@460
	??_GCArrayBoundsExceeded@@UAEPAXI@Z                         	@461
	??_GCArrayContainer@@UAEPAXI@Z                              	@148
	??_GCBreakPoint@@UAEPAXI@Z                                  	@462
	??_GCContainer@@UAEPAXI@Z                                   	@149
	??_GCCreator@@QAEPAXI@Z                                     	@150
	??_GCDCreator@@QAEPAXI@Z                                    	@151
	??_GCDatatypeMisalignment@@UAEPAXI@Z                        	@463
	??_GCFltDenormalOperand@@UAEPAXI@Z                          	@464
	??_GCFltDivideByZero@@UAEPAXI@Z                             	@465
	??_GCFltException@@UAEPAXI@Z                                	@466
	??_GCFltInexactResult@@UAEPAXI@Z                            	@467
	??_GCFltInvalidOperation@@UAEPAXI@Z                         	@468
	??_GCFltOverflow@@UAEPAXI@Z                                 	@469
	??_GCFltStackCheck@@UAEPAXI@Z                               	@470
	??_GCFltUnderflow@@UAEPAXI@Z                                	@471
	??_GCHashNode@@QAEPAXI@Z                                    	@152
	??_GCHashTable@@UAEPAXI@Z                                   	@153
	??_GCIntDivideByZero@@UAEPAXI@Z                             	@472
	??_GCIntException@@UAEPAXI@Z                                	@473
	??_GCIntOverflow@@UAEPAXI@Z                                 	@474
	??_GCKeyContainer@@UAEPAXI@Z                                	@154
	??_GCListContainer@@UAEPAXI@Z                               	@155
	??_GCLock@@QAEPAXI@Z                                        	@156
	??_GCMathException@@UAEPAXI@Z                               	@475
	??_GCMutex@@QAEPAXI@Z                                       	@157
	??_GCNakedLock@@QAEPAXI@Z                                   	@158
	??_GCNavigator@@QAEPAXI@Z                                   	@159
	??_GCNoncontinueableException@@UAEPAXI@Z                    	@476
	??_GCPrivInstruction@@UAEPAXI@Z                             	@477
	??_GCRing@@QAEPAXI@Z                                        	@160
	??_GCSeqContainer@@UAEPAXI@Z                                	@161
	??_GCSingleStep@@UAEPAXI@Z                                  	@478
	??_GCSyncMonitor@@QAEPAXI@Z                                 	@162
	??_GCTable@@QAEPAXI@Z                                       	@163
	??_GCTree@@UAEPAXI@Z                                        	@164
	??_GCWin32Exception@@UAEPAXI@Z                              	@479
	??_GCWin32UserException@@UAEPAXI@Z                          	@480
	??_GDelTree@@UAEPAXI@Z                                      	@165
	??_GUniqueTree@@UAEPAXI@Z                                   	@166
	?Alloc@CCreator@@QAEPAXI@Z                                  	@167
	?Alloc@CDCreator@@QAEPAXI@Z                                 	@168
	?Append@CHListNode@@QAEXPAV1@@Z                             	@169
	?Append@CListNode@@QAEXPAV1@@Z                              	@170
	?AverageCompares@CHashTable@@QBEIXZ                         	@171
	?AverageCompares@CTree@@QBEIXZ                              	@172
	?Branch@CTree@@AAEPAVCBinaryNode@@PAV2@W4Richtung@@@Z       	@173
	?BucketsOfLength@CHashTable@@QBEII@Z                        	@174
	?Compare@CKeyNode@@QBEHPAX@Z                                	@175
	?ContFlags@CContainer@@QAEGW4tagCONTFLAGS@@@Z               	@176
	?CorrectParents@CTree@@AAEXXZ                               	@177
	?Count@CContainer@@QBEKXZ                                   	@178
	?CurrentAfterDelete@CArrayNode@@UAEPAVCNode@@PAV2@@Z        	@179
	?CurrentAfterDelete@CHashNode@@UAEPAVCNode@@PAV2@@Z         	@180
	?CurrentAfterDelete@CKeyNode@@UAEPAVCNode@@PAV2@@Z          	@181
	?CurrentAfterDelete@CListNode@@UAEPAVCNode@@PAV2@@Z         	@182
	?CurrentAfterDelete@CNode@@UAEPAV1@PAV1@@Z                  	@183
	?DataStructure@CArrayContainer@@MBEPAVCNode@@XZ             	@184
	?DataStructure@CContainer@@MBEPAVCNode@@XZ                  	@185
	?DataStructure@CHashTable@@MBEPAVCNode@@XZ                  	@186
	?DataStructure@CListContainer@@MBEPAVCNode@@XZ              	@187
	?DataStructure@CTree@@MBEPAVCNode@@XZ                       	@188
	?Delete@CArrayContainer@@MAEHPAVCNode@@@Z                   	@189
	?Delete@CContainer@@MAEHPAVCNode@@@Z                        	@190
	?Delete@CHashTable@@MAEHPAVCNode@@@Z                        	@191
	?Delete@CListContainer@@MAEHPAVCNode@@@Z                    	@192
	?Delete@CNavigator@@QAEHXZ                                  	@193
	?Delete@CTree@@MAEHPAVCNode@@@Z                             	@194
	?DeleteNotify@CNavigator@@AAEXPAVCNode@@@Z                  	@195
	?Depth@CTree@@AAEJPAVCBinaryNode@@W4Richtung@@@Z            	@196
	?EmptyBuckets@CHashTable@@QBEIXZ                            	@197
	?Every@CContainer@@UAEHP6AHPAX0@Z0@Z                        	@198
	?Every@CContainer@@UAEXP6AXPAX@Z@Z                          	@199
	?Every@CHashTable@@UAEHP6AHPAX0@Z0@Z                        	@200
	?Every@CHashTable@@UAEXP6AXPAX@Z@Z                          	@201
	?Every@CSeqContainer@@UAEHP6AHPAX0@Z0@Z                     	@202
	?Every@CSeqContainer@@UAEXP6AXPAX@Z@Z                       	@203
	?Every@CTree@@UAEHP6AHPAX0@Z0@Z                             	@204
	?Every@CTree@@UAEXP6AXPAX@Z@Z                               	@205
	?EveryDelete@CContainer@@UAEHXZ                             	@206
	?ExtTrace@@YAXPBDZZ                                         	@207
	?Find@CBinaryNode@@UBEPAVCKeyNode@@PAX@Z                    	@208
	?Find@CHListNode@@UBEPAVCKeyNode@@PAX@Z                     	@209
	?Find@CHashNode@@UBEPAVCKeyNode@@PAX@Z                      	@210
	?Find@CKeyNode@@UBEPAV1@PAX@Z                               	@211
	?Find@CTable@@QAEHPAX@Z                                     	@212
	?FindFirst@CKeyNode@@QBEPAV1@PAX@Z                          	@213
	?FindFirst@CTable@@QAEHPAX@Z                                	@214
	?FindNext@CHListNode@@UBEPAVCKeyNode@@PAX@Z                 	@215
	?FindNext@CKeyNode@@UBEPAV1@PAX@Z                           	@216
	?FindNext@CTable@@QAEHPAX@Z                                 	@217
	?FindPrev@CHListNode@@UBEPAVCKeyNode@@PAX@Z                 	@218
	?FindPrev@CKeyNode@@UBEPAV1@PAX@Z                           	@219
	?FindPrev@CTable@@QAEHPAX@Z                                 	@220
	?First@CNavigator@@QAEHXZ                                   	@221
	?First@CRing@@QAEHXZ                                        	@222
	?FirstNode@CContainer@@MBEPAVCNode@@XZ                      	@223
	?FirstNode@CHashTable@@MBEPAVCNode@@XZ                      	@224
	?FirstNode@CTree@@MBEPAVCNode@@XZ                           	@225
	?Fold@CTree@@AAEPAVCBinaryNode@@PAV2@W4Richtung@@@Z         	@226
	?GetContainer@CKeyNode@@QBEAAVCKeyContainer@@XZ             	@227
	?GetContainer@CNavigator@@IBEAAVCContainer@@XZ              	@228
	?GetHandle@CLock@@IAEAAPAXXZ                                	@229
	?GetHandle@CNavigator@@IBEPAXXZ                             	@230
	?GetHandle@CNode@@QBEPAXXZ                                  	@231
	?GetNext@CHListNode@@QBEPAV1@XZ                             	@232
	?GetNext@CListNode@@QBEPAV1@XZ                              	@233
	?GetNode@CHashNode@@QBEPAVCHListNode@@I@Z                   	@234
	?GetPrev@CHListNode@@QBEPAV1@XZ                             	@235
	?GetPrev@CListNode@@QBEPAV1@XZ                              	@236
	?GetRank@CRing@@QBEKXZ                                      	@237
	?Goto@CRing@@QAEHK@Z                                        	@238
	?Graft@CBinaryNode@@QAEXPAV1@0@Z                            	@239
	?Handle@CMutex@@QBEPAXXZ                                    	@240
	?InOrder@CTree@@AAEHPAVCBinaryNode@@P6AHPAX1@Z1@Z           	@241
	?InOrder@CTree@@AAEXPAVCBinaryNode@@P6AXPAX@Z@Z             	@242
	?Insert@CArrayContainer@@MAEHPAX0@Z                         	@243
	?Insert@CContainer@@MAEHPAX0@Z                              	@244
	?Insert@CCreator@@QAEXXZ                                    	@245
	?Insert@CDCreator@@QAEHXZ                                   	@246
	?Insert@CHListNode@@QAEXPAV1@@Z                             	@247
	?Insert@CHashTable@@MAEHPAX0@Z                              	@248
	?Insert@CListContainer@@MAEHPAX0@Z                          	@249
	?Insert@CTree@@MAEHPAX0@Z                                   	@250
	?InsertPointer@CCreator@@QAEPAXPAX@Z                        	@251
	?IntCmp@@YAHPAX0@Z                                          	@252
	?IntHash@@YAIPAX@Z                                          	@253
	?IsWin31@@YGHXZ                                             	@254
	?IsWin32s@@YGHXZ                                            	@255
	?IsWin40@@YGHXZ                                             	@256
	?IsWinNT@@YGHXZ                                             	@257
	?Last@CNavigator@@QAEHXZ                                    	@258
	?Last@CRing@@QAEHXZ                                         	@259
	?LastNode@CArrayContainer@@MBEPAVCNode@@XZ                  	@260
	?LastNode@CContainer@@MBEPAVCNode@@XZ                       	@261
	?LastNode@CHashTable@@MBEPAVCNode@@XZ                       	@262
	?LastNode@CListContainer@@MBEPAVCNode@@XZ                   	@263
	?LastNode@CTree@@MBEPAVCNode@@XZ                            	@264
	?Left@CBinaryNode@@QBEPAV1@XZ                               	@265
	?LeftMost@CBinaryNode@@QBEPAV1@XZ                           	@266
	?LeftMostOrRight@CBinaryNode@@QBEPAV1@XZ                    	@267
	?Linear@CTree@@AAEPAVCBinaryNode@@XZ                        	@268
	?Lock@CNode@@QAEXXZ                                         	@269
	?Locked@CNode@@QBEHXZ                                       	@270
	?Next@CArrayNode@@UBEPAVCSeqNode@@K@Z                       	@271
	?Next@CBinaryNode@@UBEPAVCKeyNode@@XZ                       	@272
	?Next@CHListNode@@UBEPAVCKeyNode@@XZ                        	@273
	?Next@CHashNode@@UBEPAVCKeyNode@@XZ                         	@274
	?Next@CKeyNode@@UBEPAV1@XZ                                  	@275
	?Next@CListNode@@UBEPAVCSeqNode@@K@Z                        	@276
	?Next@CRing@@QAEHXZ                                         	@277
	?Next@CSeqNode@@UBEPAV1@K@Z                                 	@278
	?Next@CTable@@QAEHXZ                                        	@279
	?Optimize@CTree@@QAEXXZ                                     	@280
	?P@CLock@@IAEPAXXZ                                          	@281
	?P@CNakedLock@@QAEPAXXZ                                     	@282
	?Parent@CBinaryNode@@QBEPAV1@XZ                             	@283
	?PostOrder@CTree@@AAEXPAVCBinaryNode@@P6AXPAX@Z@Z           	@284
	?PreOrder@CTree@@AAEXPAVCBinaryNode@@P6AXPAX@Z@Z            	@285
	?Prev@CArrayNode@@UBEPAVCSeqNode@@K@Z                       	@286
	?Prev@CBinaryNode@@UBEPAVCKeyNode@@XZ                       	@287
	?Prev@CHListNode@@UBEPAVCKeyNode@@XZ                        	@288
	?Prev@CHashNode@@UBEPAVCKeyNode@@XZ                         	@289
	?Prev@CKeyNode@@UBEPAV1@XZ                                  	@290
	?Prev@CListNode@@UBEPAVCSeqNode@@K@Z                        	@291
	?Prev@CRing@@QAEHXZ                                         	@292
	?Prev@CSeqNode@@UBEPAV1@K@Z                                 	@293
	?Prev@CTable@@QAEHXZ                                        	@294
	?ReInsert@CTable@@QAEHPAXG@Z                                	@295
	?ReInsert@CTree@@QAEPAVCNode@@PAVCBinaryNode@@PAXG@Z        	@296
	?ReSize@CHashNode@@IAEXI@Z                                  	@297
	?Register@CContainer@@AAEXPAVCNavigator@@@Z                 	@298
	?Remove@CHListNode@@QAEXXZ                                  	@299
	?Remove@CListNode@@QAEXXZ                                   	@300
	?Reset@CNavigator@@QAEXXZ                                   	@301
	?ResetTranslator@CWin32Exception@@SAHXZ                     	@481
	?Resize@CArrayContainer@@QAEHI@Z                            	@302
	?Revoke@CCreator@@QAEXXZ                                    	@303
	?Right@CBinaryNode@@QBEPAV1@XZ                              	@304
	?RightMost@CBinaryNode@@QBEPAV1@XZ                          	@305
	?SetContainer@CKeyNode@@QAEXPAVCKeyContainer@@@Z            	@306
	?SetHandle@CNode@@QAEXPAX@Z                                 	@307
	?SetLeft@CBinaryNode@@QAEXPAV1@@Z                           	@308
	?SetNext@CHListNode@@QAEXPAV1@@Z                            	@309
	?SetNext@CListNode@@QAEXPAV1@@Z                             	@310
	?SetNode@CHashNode@@QAEXIPAVCHListNode@@@Z                  	@311
	?SetParent@CBinaryNode@@QAEXPAV1@@Z                         	@312
	?SetPrev@CHListNode@@QAEXPAV1@@Z                            	@313
	?SetPrev@CListNode@@QAEXPAV1@@Z                             	@314
	?SetRight@CBinaryNode@@QAEXPAV1@@Z                          	@315
	?SetTranslator@CWin32Exception@@SAHXZ                       	@482
	?Size@CArrayContainer@@QBEIXZ                               	@316
	?Size@CHashNode@@QBEIXZ                                     	@317
	?Size@CHashTable@@QBEIXZ                                    	@318
	?Special@CTree@@AAEPAVCBinaryNode@@PAV2@W4Richtung@@@Z      	@319
	?StrCmp@@YAHPAX0@Z                                          	@320
	?StrHash@@YAIPAX@Z                                          	@321
	?TIsValidAddress@@YGHPBXIH@Z                                	@322
	?TIsValidIUnknown@@YGHPBX@Z                                 	@323
	?TIsValidString@@YGHPBDH@Z                                  	@324
	?Translate@CWin32Exception@@SAIII@Z                         	@483
	?Translator@CWin32Exception@@SAXIPAU_EXCEPTION_POINTERS@@@Z 	@484
	?Unlock@CLock@@IAEXXZ                                       	@325
	?Unlock@CNode@@QAEXXZ                                       	@326
	?Unregister@CContainer@@AAEXPAVCNavigator@@@Z               	@327
	?UserDelete@CContainer@@MAEXPAX@Z                           	@328
	?UserDelete@DelTree@@MAEXPAX@Z                              	@329
	?Valid@CLock@@QAEHXZ                                        	@330
	?Valid@CNavigator@@QBEHXZ                                   	@331
	?ValidateTree@CTree@@AAEHPAVCBinaryNode@@@Z                 	@332
	?_exception_code@CWin32UserException@@QBEIXZ                	@485
	?lock@CLock@@IAEXXZ                                         	@333
	?m_fInstalled@CWin32Exception@@0HA                          	@486
	?m_pNextProc@CWin32Exception@@0P6AXIPAU_EXCEPTION_POINTERS@@@ZA	@487
	?m_uiTranslated@CWin32Exception@@0IA                        	@488
	?IsWin41@@YGHXZ                                             	@505
	??0COptTree@@QAE@ABV0@@Z                                    	@506
	??0COptTree@@QAE@P6APAXPAX@ZP6AH00@ZW4tagCONTFLAGS@@J@Z     	@507
	??0COptTree@@QAE@W4tagCONTFLAGS@@J@Z                        	@508
	??1COptTree@@UAE@XZ                                         	@509
	??4COptTree@@QAEAAV0@ABV0@@Z                                	@510
	??_7COptTree@@6B@                                           	@511
	??_ECOptTree@@UAEPAXI@Z                                     	@512
	??_FCOptTree@@QAEXXZ                                        	@513
	??_GCOptTree@@UAEPAXI@Z                                     	@514
	?Insert@COptTree@@UAEHPAX0@Z                                	@515
	??0P5_Ticker@@QAE@ABV0@@Z                                   	@516
	??0P5_Ticker@@QAE@XZ                                        	@517
	??1P5_Ticker@@QAE@XZ                                        	@518
	??4P5_Ticker@@QAEAAV0@ABT_ULARGE_INTEGER@@@Z                	@519
	??4P5_Ticker@@QAEAAV0@ABV0@@Z                               	@520
	??GP5_Ticker@@QBE?AV0@ABV0@@Z                               	@521
	??HP5_Ticker@@QBE?AV0@ABV0@@Z                               	@522
	??_EP5_Ticker@@QAEPAXI@Z                                    	@523
	??_GP5_Ticker@@QAEPAXI@Z                                    	@524
	?Check_Has_RDTSC@P5_Ticker@@ABEHXZ                          	@525
	?Get_Frequency@P5_Ticker@@QBENAANKI@Z                       	@526
	?Get_Time@P5_Ticker@@QAEAAV1@XZ                             	@527
	?Has_RDTSC@P5_Ticker@@0HA                                   	@528
	?P5_Ticker_Available@P5_Ticker@@QBEHXZ                      	@529
	?To_Ticks@P5_Ticker@@QBE?AT_ULARGE_INTEGER@@XZ              	@530
	?m_fP5TickerAvailable@COptTree@@1HA                         	@531
