DESCRIPTION 'TRiAS® - Basisfunktionen V5.20.052, Copyright© #HK980613'

EXPORTS
	??0CClassesRoot@@QAE@PBDH@Z                                 	@1
	??0CCurrentUser@@QAE@PBDH@Z                                 	@2
	??0CIdRef@@QAE@AAVCIdentifikator@@W4VisType@@@Z             	@3
	??0CIdRef@@QAE@AAVCIdentifikator@@W4VisType@@F@Z            	@4
	??0CIdTree1@@QAE@ABV0@@Z                                    	@5
	??0CIdTree1@@QAE@XZ                                         	@6
	??0CIdTree2@@QAE@ABV0@@Z                                    	@7
	??0CIdTree2@@QAE@XZ                                         	@8
	??0CIdTree@@QAE@AAVGeoDB@@@Z                                	@9
	??0CIdTree@@QAE@ABV0@@Z                                     	@10
	??0CIdentifikator@@QAE@JQAPAVVisInfo@@FPAUHPALETTE__@@@Z    	@11
	??0CLocalMachine@@QAE@PBDH@Z                                	@12
	??0CRegistry@@QAE@PAUHKEY__@@PBDH@Z                         	@13
	??0CoordTrans@@QAE@PAVWindow@@AAVGeoDB@@@Z                  	@14
	??0DBTemplate@@IAE@ABV0@@Z                                  	@15
	??0DBTemplate@@IAE@PBD@Z                                    	@16
	??0DBTemplate@@IAE@XZ                                       	@17
	??0DLLBind@@QAE@PBDK@Z                                      	@18
	??0Ellipsen@@QAE@AAVPunkt@@JJ@Z                             	@19
	??0Ellipsen@@QAE@JJJJ@Z                                     	@20
	??0ExtFont@@QAE@W4StdFamily@@VDimension@@PBD@Z              	@21
	??0ExtFont@@QAE@W4StdFont@@@Z                               	@22
	??0ExtPen@@QAE@W4StdLineStyle@@FVColor@@@Z                  	@23
	??0FVisInfo@@QAE@AAUtagFVISINFO@@@Z                         	@24
	??0FVisInfo@@QAE@FFVColor@@0FPAD@Z                          	@25
	??0GeoObjekt@@QAE@AAVGeoDB@@JJ@Z                            	@26
	??0GeoText@@QAE@AAV0@@Z                                     	@27
	??0GeoText@@QAE@AAVGeoDB@@JJABVPunkt@@PAD@Z                 	@28
	??0GeoText@@QAE@AAVGeoDB@@JJPAD@Z                           	@29
	??0GeoTextInd@@QAE@AAV0@@Z                                  	@30
	??0GeoTextInd@@QAE@AAVGeoDB@@JJABVPunkt@@J@Z                	@31
	??0GeoTextInd@@QAE@AAVGeoDB@@JJJ@Z                          	@32
	??0GeoTextIndOP@@QAE@AAV0@@Z                                	@108
	??0GeoTextIndOP@@QAE@AAVGeoDB@@JJABVPunkt@@PAD@Z            	@109
	??0GeoTextIndOP@@QAE@AAVGeoDB@@JJPAD@Z                      	@160
	??0HeaderEntry@@QAE@AAV0@@Z                                 	@33
	??0HeaderEntry@@QAE@AAVGeoDB@@@Z                            	@34
	??0HeaderEntry@@QAE@AAVGeoDB@@PBD1K@Z                       	@35
	??0HeaderEntry@@QAE@AAVGeoDB@@PBD@Z                         	@36
	??0HeaderEntry@@QAE@AAVGeoDB@@VResID@@@Z                    	@37
	??0IdentDescription@@QAE@AAV0@@Z                            	@38
	??0IdentDescription@@QAE@JPADPAVVisInfo@@PAUHPALETTE__@@@Z  	@39
	??0Kante@@QAE@ABV0@@Z                                       	@40
	??0Kante@@QAE@QAJ0J@Z                                       	@41
	??0Kante@@QAE@QAVPunkt@@J@Z                                 	@42
	??0KomplexObjekt@@QAE@AAV0@@Z                               	@43
	??0KomplexObjekt@@QAE@AAVGeoDB@@JJ@Z                        	@44
	??0KomplexObjekt@@QAE@AAVGeoDB@@JJJ@Z                       	@45
	??0LVisInfo@@QAE@AAUtagLVISINFO@@@Z                         	@46
	??0LVisInfo@@QAE@FFVColor@@FPAD@Z                           	@47
	??0Masche@@IAE@PAVPunkt@@J@Z                                	@48
	??0Masche@@QAE@ABV0@@Z                                      	@49
	??0Masche@@QAE@PAVKante@@F@Z                                	@50
	??0Masche@@QAE@QAJ0J@Z                                      	@51
	??0MerkmalDescription@@QAE@AAV0@@Z                          	@52
	??0MerkmalDescription@@QAE@JPADFF@Z                         	@53
	??0MerkmalsListe@@QAE@HH@Z                                  	@54
	??0MerkmalsListe@@QAE@PAVGeoDB@@PAVPBD_DB@@JFHH@Z           	@55
	??0MerkmalsListe@@QAE@PAVGeoDB@@PAVPBD_DB@@PADHH@Z          	@56
	??0ObjContainer@@QAE@ABV0@@Z                                	@57
	??0ObjContainer@@QAE@JJJJ@Z                                 	@58
	??0ObjContainer@@QAE@VPunkt@@0@Z                            	@59
	??0ObjContainer@@QAE@VPunkt@@VAusdehnung@@@Z                	@60
	??0ObjFeld@@QAE@ABV0@@Z                                     	@61
	??0ObjFeld@@QAE@XZ                                          	@62
	??0ObjRelFeld@@QAE@ABV0@@Z                                  	@63
	??0ObjRelFeld@@QAE@XZ                                       	@64
	??0ObjektListe1@@QAE@ABV0@@Z                                	@65
	??0ObjektListe1@@QAE@XZ                                     	@66
	??0ObjektListe2@@QAE@ABV0@@Z                                	@67
	??0ObjektListe2@@QAE@XZ                                     	@68
	??0ObjektListe@@QAE@AAVGeoDB@@@Z                            	@69
	??0ObjektListe@@QAE@ABV0@@Z                                 	@70
	??0ObjektListeIterator@@QAE@AAVObjFeld@@@Z                  	@71
	??0PBDTempTree@@QAE@ABV0@@Z                                 	@72
	??0PBDTempTree@@QAE@XZ                                      	@73
	??0PBD_DB@@QAE@PBD@Z                                        	@74
	??0PBD_DB@@QAE@XZ                                           	@75
	??0PBD_Data@@QAE@PAVPBD_DB@@W4PBDTyp@@@Z                    	@76
	??0PBD_Data@@QAE@PAVPBD_DB@@W4PBDTyp@@JPADH@Z               	@77
	??0PBD_Ident@@QAE@PAVPBD_DB@@@Z                             	@78
	??0PBD_Ident@@QAE@PAVPBD_DB@@JPADH@Z                        	@79
	??0PBD_Merkmal@@QAE@PAVPBD_DB@@@Z                           	@80
	??0PBD_Merkmal@@QAE@PAVPBD_DB@@JPADH@Z                      	@81
	??0PBD_Relation@@QAE@PAVPBD_DB@@@Z                          	@82
	??0PBD_Relation@@QAE@PAVPBD_DB@@JPADH@Z                     	@83
	??0PVisInfo@@QAE@AAUtagPVISINFO@@@Z                         	@84
	??0PVisInfo@@QAE@FFVColor@@VDimension@@PADF0@Z              	@85
	??0ProFile@@QAE@PBD0@Z                                      	@86
	??0Sicht@@QAE@AAVGeoDB@@PBD1@Z                              	@87
	??0TVisInfo@@QAE@AAUtagTVISINFO@@@Z                         	@88
	??0TVisInfo@@QAE@FFVColor@@VDimension@@FFPAD@Z              	@89
	??0TextMerkmal@@QAE@PAVPBD_DB@@JPAD@Z                       	@90
	??0VisInfo@@QAE@AAUtagVISINFO@@@Z                           	@91
	??0VisInfo@@QAE@FFVColor@@PAD@Z                             	@92
	??1CClassesRoot@@QAE@XZ                                     	@93
	??1CCurrentUser@@QAE@XZ                                     	@94
	??1CIdRef@@QAE@XZ                                           	@95
	??1CIdTree1@@UAE@XZ                                         	@96
	??1CIdTree2@@UAE@XZ                                         	@97
	??1CIdTree@@UAE@XZ                                          	@98
	??1CIdentifikator@@QAE@XZ                                   	@99
	??1CLocalMachine@@QAE@XZ                                    	@100
	??1CRegistry@@QAE@XZ                                        	@101
	??1CoordTrans@@QAE@XZ                                       	@102
	??1DBTemplate@@UAE@XZ                                       	@103
	??1DLLBind@@QAE@XZ                                          	@104
	??1ExtFont@@QAE@XZ                                          	@105
	??1ExtPen@@QAE@XZ                                           	@106
	??1ExtShapeObject@@UAE@XZ                                   	@107
	??1GeoTextIndOP@@UAE@XZ                                     	@161
	??1HeaderEntry@@QAE@XZ                                      	@110
	??1IdentDescription@@QAE@XZ                                 	@111
	??1IntMerkmal@@UAE@XZ                                       	@112
	??1Kante@@QAE@XZ                                            	@113
	??1KomplexObjekt@@UAE@XZ                                    	@114
	??1Masche@@QAE@XZ                                           	@115
	??1MerkmalDescription@@QAE@XZ                               	@116
	??1ObjFeld@@UAE@XZ                                          	@117
	??1ObjRelFeld@@UAE@XZ                                       	@118
	??1ObjektListe1@@UAE@XZ                                     	@119
	??1ObjektListe2@@UAE@XZ                                     	@120
	??1ObjektListe@@UAE@XZ                                      	@121
	??1ObjektListeIterator@@QAE@XZ                              	@122
	??1PBDTempTree@@UAE@XZ                                      	@123
	??1PBD_DB@@UAE@XZ                                           	@124
	??1PBD_Data@@UAE@XZ                                         	@125
	??1PBD_Ident@@UAE@XZ                                        	@126
	??1ProFile@@QAE@XZ                                          	@127
	??1Sicht@@QAE@XZ                                            	@128
	??1TextMerkmal@@UAE@XZ                                      	@129
	??4CClassesRoot@@QAEAAV0@ABV0@@Z                            	@130
	??4CCurrentUser@@QAEAAV0@ABV0@@Z                            	@131
	??4CIdTree1@@QAEAAV0@ABV0@@Z                                	@132
	??4CIdTree2@@QAEAAV0@ABV0@@Z                                	@133
	??4CLocalMachine@@QAEAAV0@ABV0@@Z                           	@134
	??4CRegistry@@QAEAAV0@ABV0@@Z                               	@135
	??4ExtFont@@QAEAAV0@ABV0@@Z                                 	@136
	??4ExtPen@@QAEAAV0@ABV0@@Z                                  	@137
	??4IntMerkmal@@QAEAAV0@AAV0@@Z                              	@138
	??4Kante@@QAEXABV0@@Z                                       	@139
	??4Masche@@QAEXABV0@@Z                                      	@140
	??4ObjFeld@@QAEAAV0@ABV0@@Z                                 	@141
	??4ObjRelFeld@@QAEAAV0@ABV0@@Z                              	@142
	??4ObjektListe1@@QAEAAV0@ABV0@@Z                            	@143
	??4ObjektListe2@@QAEAAV0@ABV0@@Z                            	@144
	??4ObjektListeIterator@@QAEAAV0@ABV0@@Z                     	@145
	??4PBDTempTree@@QAEAAV0@ABV0@@Z                             	@146
	??4TextMerkmal@@QAEAAV0@AAV0@@Z                             	@147
	??7@YAHAAVRectangle@@@Z                                     	@148
	??7Punkt@@QAEHXZ                                            	@149
	??BExtShapeObject@@UAEPAVGeoObjekt@@XZ                      	@150
	??BPunkt@@QAEHXZ                                            	@151
	??CExtShapeObject@@UAEPAVGeoObjekt@@XZ                      	@152
	??GObjContainer@@QAE?AVAusdehnung@@AAV0@@Z                  	@153
	??H@YA?AVRectangle@@AAV0@0@Z                                	@154
	??HBasicGeoText@@UAEPAVGeoObjekt@@J@Z                       	@155
	??HGeoFlaeche@@UAEPAVGeoObjekt@@J@Z                         	@156
	??HGeoKante@@UAEPAVGeoObjekt@@J@Z                           	@157
	??HGeoKreis@@UAEPAVGeoObjekt@@J@Z                           	@158
	??HGeoPunkt@@UAEPAVGeoObjekt@@J@Z                           	@159
	??HKomplexObjekt@@UAEPAVGeoObjekt@@J@Z                      	@162
	??HObjContainer@@QAEAAV0@AAV0@@Z                            	@163
	??I@YA?AVRectangle@@AAV0@0@Z                                	@164
	??IObjContainer@@QAEAAV0@AAV0@@Z                            	@165
	??M@YAHAAVObjContainer@@0@Z                                 	@166
	??N@YAHAAVObjContainer@@0@Z                                 	@167
	??O@YAHAAVObjContainer@@0@Z                                 	@168
	??P@YAHAAVObjContainer@@0@Z                                 	@169
	??T@YAHAAVRectangle@@0@Z                                    	@170
	??TObjContainer@@QAEHAAV0@@Z                                	@171
	??YObjContainer@@QAEXAAV0@@Z                                	@172
	??_4ObjContainer@@QAEXAAV0@@Z                               	@173
	??_7CIdTree1@@6B@                                           	@174
	??_7CIdTree2@@6B@                                           	@175
	??_7CIdTree@@6BCIdTree1@@@                                  	@176
	??_7CIdTree@@6BCIdTree2@@@                                  	@177
	??_7ObjFeld@@6B@                                            	@178
	??_7ObjRelFeld@@6B@                                         	@179
	??_7ObjektListe1@@6B@                                       	@180
	??_7ObjektListe2@@6B@                                       	@181
	??_7ObjektListe@@6BObjektListe1@@@                          	@182
	??_7ObjektListe@@6BObjektListe2@@@                          	@183
	??_7PBDTempTree@@6B@                                        	@184
	??_ECClassesRoot@@QAEPAXI@Z                                 	@185
	??_ECCurrentUser@@QAEPAXI@Z                                 	@186
	??_ECIdRef@@QAEPAXI@Z                                       	@187
	??_ECIdTree1@@UAEPAXI@Z                                     	@188
	??_ECIdTree2@@UAEPAXI@Z                                     	@189
	??_ECIdTree@@UAEPAXI@Z                                      	@190
	??_ECLocalMachine@@QAEPAXI@Z                                	@191
	??_ECRegistry@@QAEPAXI@Z                                    	@192
	??_ECoordTrans@@QAEPAXI@Z                                   	@193
	??_EExtFont@@QAEPAXI@Z                                      	@194
	??_EExtPen@@QAEPAXI@Z                                       	@195
	??_EObjFeld@@UAEPAXI@Z                                      	@196
	??_EObjRelFeld@@UAEPAXI@Z                                   	@197
	??_EObjektListe1@@UAEPAXI@Z                                 	@198
	??_EObjektListe2@@UAEPAXI@Z                                 	@199
	??_EObjektListe@@UAEPAXI@Z                                  	@200
	??_EObjektListeIterator@@QAEPAXI@Z                          	@201
	??_EPBDTempTree@@UAEPAXI@Z                                  	@202
	??_FMerkmalsListe@@QAEXXZ                                   	@203
	??_FObjContainer@@QAEXXZ                                    	@204
	??_GCClassesRoot@@QAEPAXI@Z                                 	@205
	??_GCCurrentUser@@QAEPAXI@Z                                 	@206
	??_GCIdRef@@QAEPAXI@Z                                       	@207
	??_GCIdTree1@@UAEPAXI@Z                                     	@208
	??_GCIdTree2@@UAEPAXI@Z                                     	@209
	??_GCIdTree@@UAEPAXI@Z                                      	@210
	??_GCLocalMachine@@QAEPAXI@Z                                	@211
	??_GCRegistry@@QAEPAXI@Z                                    	@212
	??_GCoordTrans@@QAEPAXI@Z                                   	@213
	??_GExtFont@@QAEPAXI@Z                                      	@214
	??_GExtPen@@QAEPAXI@Z                                       	@215
	??_GObjFeld@@UAEPAXI@Z                                      	@216
	??_GObjRelFeld@@UAEPAXI@Z                                   	@217
	??_GObjektListe1@@UAEPAXI@Z                                 	@218
	??_GObjektListe2@@UAEPAXI@Z                                 	@219
	??_GObjektListe@@UAEPAXI@Z                                  	@220
	??_GObjektListeIterator@@QAEPAXI@Z                          	@221
	??_GPBDTempTree@@UAEPAXI@Z                                  	@222
	?ASP@Masche@@QAEJXZ                                         	@223
	?Activate@DBTemplate@@UAEPAV1@XZ                            	@224
	?Activate@PBD_DB@@UAEPAVDBTemplate@@XZ                      	@225
	?ActivateCOMPbd@PBD_DB@@QAEPAVDBTemplate@@XZ                	@226
	?AddEntry@CIdTree2@@QAEHAAVCIdentifikator@@PAVVisInfo@@@Z   	@227
	?AddIdent@CIdTree@@QAEHJQAPAVVisInfo@@FPAUHPALETTE__@@@Z    	@228
	?AddKante@Masche@@QAEXABV1@FF@Z                             	@229
	?AddKante@Masche@@QAEXQAJ0JF@Z                              	@230
	?AddNewIdent@CIdTree@@QAEHJPAUHPALETTE__@@FFJ@Z             	@231
	?AddObject@KomplexObjekt@@QAE?AW4ErrCode@@J@Z               	@232
	?AddObjectToList@CIdentifikator@@QAEHAAVGeoDB@@J@Z          	@542
	?AddObjectsToKO@KomplexObjekt@@QAE?AW4ErrCode@@JPAJJ@Z      	@233
	?AddPunkt@Kante@@QAEXABV1@JJ@Z                              	@234
	?AddPunkt@Kante@@QAEXQAJ0JJ@Z                               	@235
	?AddPunkt@Masche@@QAEXABVKante@@JJF@Z                       	@236
	?AddPunkt@Masche@@QAEXQAJ0JJF@Z                             	@237
	?AddTargettoDefaultSight@@YA?AW4ErrCode@@AAVGeoDB@@W4TType@@JPAVVisInfo@@@Z	@238
	?AddToTempTree@PBD_DB@@QAEHAAVPBD_Data@@@Z                  	@239
	?AlignStyle@CIdentifikator@@QAEFXZ                          	@240
	?AllDelete@CIdTree@@QAEXXZ                                  	@241
	?BKMode@CIdentifikator@@QAEFW4VisType@@@Z                   	@242
	?BeginTransaction@DBTemplate@@QAE?AW4ErrCode@@XZ            	@243
	?BoundingBox@ExtShapeObject@@UAE?AVRectangle@@XZ            	@244
	?BreakTransaction@DBTemplate@@QAE?AW4ErrCode@@XZ            	@245
	?CalcCont@ObjFeld@@QAE?AVObjContainer@@XZ                   	@246
	?CanConfig@CoordTrans@@QAEHXZ                               	@247
	?ChangePriority@CIdTree@@QAEHJFW4VisType@@H@Z               	@248
	?ChangeText@BasicGeoText@@UAEPADPAD@Z                       	@249
	?ChangeText@GeoTextIndOP@@UAEPADPAD@Z                       	@724
	?ChangeVisInfo@CIdentifikator@@QAEPAVVisInfo@@PAV2@W4VisType@@@Z	@250
	?ChooseFontA@ExtFont@@QAEHPAUHWND__@@PADPAPAVTVisInfo@@AAVPrinterPars@@F@Z	@251
	?Close@DBTemplate@@UAE?AW4ErrCode@@H@Z                      	@252
	?Close@GeoDB@@UAE?AW4ErrCode@@H@Z                           	@253
	?CondOptimize@ObjektListe@@QAEHT_ULARGE_INTEGER@@@Z         	@254
	?CoordTransAspectRatio@CoordTrans@@QAENAAVObjContainer@@@Z  	@255
	?CoordTransDescription@CoordTrans@@QAEPADPADF@Z             	@256
	?CoordTransDistance@CoordTrans@@QAENPBVDoublePair@@0@Z      	@257
	?CoordTransDistanceEx@CoordTrans@@QAEHPBVDoublePair@@0AAN1@Z	@258
	?CoordTransLoad@CoordTrans@@IAEHPAUHWND__@@@Z               	@259
	?CoordTransMode@CoordTrans@@QAEHPAVWindow@@@Z               	@260
	?CoordTransRectangle@CoordTrans@@QAEHPBVDoublePair@@0PAV2@@Z	@261
	?CoordTransToString@CoordTrans@@QAEPADNHPADF@Z              	@262
	?CoordTransToStringEx@CoordTrans@@QAEPADNNHPADF@Z           	@263
	?CoordTransToValue@CoordTrans@@QAENPAD@Z                    	@264
	?CoordTransToValueEx@CoordTrans@@QAEHPBD0AAN1@Z             	@265
	?CoordTransUnLoad@CoordTrans@@IAEHXZ                        	@266
	?Copy@CDefaultFVisInfo@@UAEPAUCVisInfoBase@@XZ              	@267
	?Copy@CDefaultLVisInfo@@UAEPAUCVisInfoBase@@XZ              	@268
	?Copy@CDefaultPVisInfo@@UAEPAUCVisInfoBase@@XZ              	@269
	?Copy@CDefaultTVisInfo@@UAEPAUCVisInfoBase@@XZ              	@270
	?Copy@CDefaultVisInfo@@UAEPAUCVisInfoBase@@XZ               	@271
	?Copy@FVisInfo@@UAEPAUCVisInfoBase@@XZ                      	@272
	?Copy@LVisInfo@@UAEPAUCVisInfoBase@@XZ                      	@273
	?Copy@PVisInfo@@UAEPAUCVisInfoBase@@XZ                      	@274
	?Copy@TVisInfo@@UAEPAUCVisInfoBase@@XZ                      	@275
	?Copy@VisInfo@@UAEPAUCVisInfoBase@@XZ                       	@276
	?CopyCustom@FVisInfo@@UAEPAUCVisInfoBase@@XZ                	@277
	?CopyCustom@LVisInfo@@UAEPAUCVisInfoBase@@XZ                	@278
	?CopyCustom@PVisInfo@@UAEPAUCVisInfoBase@@XZ                	@279
	?CopyCustom@TVisInfo@@UAEPAUCVisInfoBase@@XZ                	@280
	?CopyCustom@VisInfo@@UAEPAUCVisInfoBase@@XZ                 	@281
	?CopyTo@FVisInfo@@UAEXAAUtagVISINFO@@@Z                     	@282
	?CopyTo@LVisInfo@@UAEXAAUtagVISINFO@@@Z                     	@283
	?CopyTo@PVisInfo@@UAEXAAUtagVISINFO@@@Z                     	@284
	?CopyTo@TVisInfo@@UAEXAAUtagVISINFO@@@Z                     	@285
	?CopyTo@VisInfo@@UAEXAAUtagVISINFO@@@Z                      	@286
	?CopyVisInfo@CIdentifikator@@QAEPAVVisInfo@@PAV2@@Z         	@287
	?CountClasses@GeoDB@@QAEJXZ                                 	@288
	?CountObjects@GeoDB@@QAEJXZ                                 	@289
	?CountViews@GeoDB@@QAEJXZ                                   	@290
	?CreateColorPattern@@YAPAVBitmap@@PAUHDC__@@PAUHPALETTE__@@IVColor@@2@Z	@291
	?CreateHatchPattern@@YAPAVBitmap@@PAUHDC__@@PAUHPALETTE__@@I@Z	@702
	?CreateInstance@DLLBind@@SAPAV1@PBDK@Z                      	@292
	?CreateObjTemplate@GeoDB@@QAEJJF@Z                          	@293
	?CreateView@Sicht@@QAE?AW4ErrCode@@H@Z                      	@294
	?DB@ObjektListe@@QAEAAVGeoDB@@XZ                            	@295
	?DBCont@GeoDB@@QAE?AVObjContainer@@H@Z                      	@296
	?DecrementObjectCount@CIdTree@@QAEJAAVGeoDB@@JW4ObjTyp@@J@Z 	@677
	?DecrementObjectCount@CIdentifikator@@QAEJW4ObjTyp@@@Z      	@672
	?DecrementObjectCount@ObjektListe@@QAEJW4ObjTyp@@@Z         	@674
	?DelAttribSet@Sicht@@AAE?AW4ErrCode@@J@Z                    	@297
	?DelGI@GeoDB@@QAE?AW4ErrCode@@J@Z                           	@298
	?DelMiText@Sicht@@QAE?AW4ErrCode@@J@Z                       	@299
	?DelPBDData@PBD_DB@@QAE?AW4ErrCode@@PAUtagPBDDATA@@@Z       	@300
	?DelSight@Sicht@@QAE?AW4ErrCode@@H@Z                        	@301
	?DelTarget@Sicht@@AAE?AW4ErrCode@@W4TType@@JF@Z             	@302
	?DeleteIdent@CIdTree@@QAEHJF@Z                              	@303
	?DeleteInDB@PBD_Merkmal@@UAE?AW4ErrCode@@JF@Z               	@304
	?DeleteInDB@TextMerkmal@@UAE?AW4ErrCode@@JF@Z               	@305
	?DeleteInPBD@PBD_Data@@UAE?AW4ErrCode@@XZ                   	@306
	?DeleteInPBD@PBD_Ident@@UAE?AW4ErrCode@@XZ                  	@307
	?DeleteInPBD@PBD_Merkmal@@UAE?AW4ErrCode@@XZ                	@308
	?DeleteInPBD@PBD_Relation@@UAE?AW4ErrCode@@XZ               	@309
	?DeleteKey@CRegistry@@QAEHPBDH@Z                            	@310
	?DeleteObj@ObjFeld@@QAEHJ@Z                                 	@311
	?DeleteObject@KomplexObjekt@@QAE?AW4ErrCode@@J@Z            	@312
	?DeleteObjekt@ObjektListe@@QAEHJ@Z                          	@313
	?DeletePriority@CIdTree@@IAEXAAVCTable@@FW4VisType@@J@Z     	@314
	?EPenWidth@ExtPen@@SAIW4StdLineStyle@@AAF1@Z                	@726
	?EntryDouble@HeaderEntry@@QAENN@Z                           	@315
	?EntryLong@HeaderEntry@@QAEJJH@Z                            	@316
	?EnumHdrData@GeoDB@@QAEHP6AHPADHPAX@Z1@Z                    	@317
	?EnumIdentObjects@GeoDB@@QAEHJP6AHJHPAX@Z0@Z                	@318
	?EnumIdentObjectsEx@GeoDB@@QAEHJP6AHJKPAX@Z0K@Z             	@319
	?EnumIdents@GeoDB@@QAEHP6AHJHPAX@Z0@Z                       	@320
	?EnumIdents@Sicht@@QAEHP6AHJHPAX@Z0@Z                       	@321
	?EnumIdentsEx@GeoDB@@QAEHP6AHJKPAX@Z0K@Z                    	@322
	?EnumIdentsEx@Sicht@@QAEHP6AHJKPAX@Z0F@Z                    	@323
	?EnumKObjects@KomplexObjekt@@QAEHP6AHJHPAX@Z0@Z             	@324
	?EnumKObjects@ObjektListe@@QAEHJP6AHJHPAX@Z0@Z              	@325
	?EnumMerkmale@MerkmalsListe@@QAEJP6AHJHPAX@Z0@Z             	@326
	?EnumMerkmaleEx@MerkmalsListe@@QAEJP6AHJKPAX@Z0@Z           	@327
	?EnumObjects@Sicht@@QAEHP6AHJHPAX@Z0@Z                      	@328
	?EnumObjectsIdl@GeoDB@@QAEHJJP6AHJHPAX@Z0@Z                 	@347
	?EnumObjectsIdlEx@GeoDB@@QAEHJJHP6AHJKPAX@Z0K@Z             	@703
	?EnumPBDData@PBD_DB@@QAEHJP6AHJHPAX@Z0@Z                    	@329
	?EnumRCodes@GeoDB@@QAEHP6AHJHPAX@Z0@Z                       	@330
	?EnumRelationObjs@GeoDB@@QAEHPAUtagENUMRELATIONOBJS@@@Z     	@331
	?Enumerate@ObjFeld@@QAEHP6AHJHPAX@Z0@Z                      	@332
	?Escapement@CIdentifikator@@QAEFXZ                          	@333
	?EvalKoeffs@@YA?AW4ErrCode@@PAN000@Z                        	@334
	?EveryDelete@ObjektListe@@UAEHXZ                            	@335
	?EveryDelete@PBD_DB@@QAEXXZ                                 	@336
	?FAddFeature@ExtShapeObject@@QAEHJPAD@Z                     	@337
	?FDeleteFeature@ExtShapeObject@@QAEHJ@Z                     	@338
	?FFindFeature@ExtShapeObject@@QAEPAVCFeature@@J@Z           	@339
	?FPriority@CIdRef@@QAEAAFXZ                                 	@340
	?FSubKeyDelete@CRegistry@@IAEHPAUHKEY__@@PBD@Z              	@341
	?FVisTyp@CIdRef@@QAE?AW4VisType@@XZ                         	@342
	?FillFromTempTree@PBD_DB@@QAEHAAVPBD_Data@@@Z               	@343
	?FillList@MerkmalsListe@@AAEXPAVGeoDB@@PAVPBD_DB@@JF@Z      	@344
	?FillMode@CIdentifikator@@QAEFXZ                            	@345
	?FindID@@YA?AW4ErrCode@@PAUHPROJECT__@@JPAJ@Z               	@346
	?FindId@CIdTree@@QAEHAAVGeoDB@@JPAJPAF@Z                    	@692
	?FindId@CIdentifikator@@QAEHAAVGeoDB@@PAJPAF@Z              	@693
	?FindId@GeoDB@@QAE?AW4ErrCode@@JPAJPAF0@Z                   	@704
	?FindObjectFromGUID@GeoDB@@QAEJABU_GUID@@PAJ@Z              	@705
	?FindObjectFromGUIDFeature@GeoDB@@QAEJABU_GUID@@JPAJ@Z      	@706
	?FindObjectsFromPoint@ObjektListe@@QAEHVPoint@@FP6AHJUtagRECT@@PAX@Z2@Z	@348
	?FindSchriftObjekt@ObjektListe@@QAEHVPoint@@AAJAAVRectangle@@@Z	@349
	?FindTarget@Sicht@@AAE?AW4ErrCode@@W4TType@@JPAPAVVisInfo@@F@Z	@350
	?FindTextA@GeoDB@@QAE?AW4ErrCode@@JHPADAAVObjFeld@@@Z       	@351
	?FirstONr@ObjektListeIterator@@QAEJXZ                       	@352
	?FlInhalt@Masche@@QAENAAVKante@@PAVCoordTrans@@@Z           	@353
	?Flush@DBTemplate@@UAE?AW4ErrCode@@H@Z                      	@354
	?Flush@GeoDB@@UAE?AW4ErrCode@@H@Z                           	@355
	?Flush@PBD_DB@@UAE?AW4ErrCode@@H@Z                          	@356
	?FontChanged@ExtFont@@QAEHXZ                                	@357
	?FrameMode@CIdentifikator@@QAEHXZ                           	@358
	?FrameWidth@CIdentifikator@@QAEFXZ                          	@359
	?GIWindow@GeoDB@@QAE?AW4ErrCode@@AAVObjContainer@@AAVObjFeld@@H@Z	@360
	?Get2ndColor@CIdentifikator@@QAE?AVColor@@XZ                	@361
	?GetAreaCount@CIdTree@@QAEJJ@Z                              	@680
	?GetAreaCount@ObjektListe@@QAEJXZ                           	@666
	?GetAttribs@Sicht@@QAE?AW4ErrCode@@PAJ0@Z                   	@362
	?GetBkColor@CIdentifikator@@QAE?AVColor@@XZ                 	@363
	?GetBrush@CIdentifikator@@QAEPAVBrush@@PAUHDC__@@HPAPAVBitmap@@@Z	@364
	?GetColor@CIdTree@@QAE?AVColor@@JW4VisType@@@Z              	@365
	?GetColor@CIdentifikator@@QAE?AVColor@@W4VisType@@W4Colors@@@Z	@366
	?GetCompleteDefaultVisInfo@@YA?AW4ErrCode@@AAVGeoDB@@JPAUHPALETTE__@@PAPAVVisInfo@@FPAF@Z	@367
	?GetCompleteVisInfo@CIdentifikator@@QAEFPAPAVVisInfo@@FPAF@Z	@368
	?GetCompleteVisInfo@Sicht@@QAEFJPAUHPALETTE__@@PAPAVVisInfo@@FPAF@Z	@369
	?GetComplexCount@CIdTree@@QAEJJ@Z                           	@681
	?GetComplexCount@ObjektListe@@QAEJXZ                        	@667
	?GetCont@Ellipsen@@QAE?AVObjContainer@@XZ                   	@370
	?GetCont@Kante@@QAE?AVObjContainer@@XZ                      	@371
	?GetCont@KomplexObjekt@@QAE?AVObjContainer@@XZ              	@372
	?GetCont@Masche@@QAE?AVObjContainer@@XZ                     	@373
	?GetCont@Sicht@@QAEHAAVObjContainer@@@Z                     	@374
	?GetDBPath@DBTemplate@@QAEPADPADF@Z                         	@375
	?GetDBVersion@DBTemplate@@QAEJXZ                            	@376
	?GetDWORD@CRegistry@@QAEHPBDAAK@Z                           	@377
	?GetDefaultTargetVisInfo@@YA?AW4ErrCode@@AAVGeoDB@@W4TType@@JPAPAVVisInfo@@F@Z	@378
	?GetDefaultTypes@@YAFAAVGeoDB@@JF@Z                         	@379
	?GetFont@CIdentifikator@@QAEPAVFont@@VDimension@@@Z         	@380
	?GetFont@CIdentifikator@@QAEPAVFont@@XZ                     	@381
	?GetGI@GeoDB@@QAE?AW4ErrCode@@JPAPAVGeoObjekt@@PAVObjContainer@@@Z	@382
	?GetHandle@ExtPen@@QAEPAUHPEN__@@F@Z                        	@383
	?GetIdent@@YAPAXPAX@Z                                       	@384
	?GetIdentObjectCounts@GeoDB@@QAE?AW4ErrCode@@JPAJ@Z         	@707
	?GetInvTransformParam@CoordTrans@@QAEHNNPAPAX@Z             	@385
	?GetKante@Kante@@QAEXQAJ0AAJ@Z                              	@386
	?GetLangText@PBD_Data@@QAEPADXZ                             	@387
	?GetLastInsertTime@ObjektListe1@@QAE_JXZ                    	@473
	?GetLastInsertTime@ObjektListe2@@QAE_JXZ                    	@673
	?GetLayerCount@CIdRef@@QAEHN@Z                              	@727
	?GetLineCount@CIdTree@@QAEJJ@Z                              	@682
	?GetLineCount@ObjektListe@@QAEJXZ                           	@668
	?GetMLen@PBD_Merkmal@@QAEFXZ                                	@388
	?GetMerkmalsText@DoubleMerkmal@@UAEPADXZ                    	@389
	?GetMerkmalsText@IntMerkmal@@UAEPADXZ                       	@390
	?GetMerkmalsText@MerkmalsListe@@QAEPADJ@Z                   	@391
	?GetMerkmalsText@TextMerkmal@@UAEPADXZ                      	@392
	?GetMerkmalsWert@PBD_Merkmal@@QAEPADJ@Z                     	@393
	?GetMetricParam@CoordTrans@@QAEHABVPunkt@@PAPAX@Z           	@394
	?GetMetricParam@CoordTrans@@QAEHJJPAPAX@Z                   	@395
	?GetMiText@Sicht@@QAE?AW4ErrCode@@JPAPAD@Z                  	@396
	?GetName@DLLBind@@QAEPBDXZ                                  	@397
	?GetNativeParam@CoordTrans@@QAEHABN0PAPAX@Z                 	@398
	?GetOTypes@CIdentifikator@@QAEFAAVGeoDB@@@Z                 	@399
	?GetOTypesEx@CIdentifikator@@QAEHAAVGeoDB@@AAF@Z            	@694
	?GetObjContainer@@YAHPAVGeoObjekt@@AAVObjContainer@@@Z      	@400
	?GetObjRgn@Sicht@@QAEJXZ                                    	@401
	?GetObjectCount@CIdTree@@QAEJJW4ObjTyp@@@Z                  	@675
	?GetObjectCount@CIdentifikator@@QAEJW4ObjTyp@@@Z            	@676
	?GetObjectCount@ObjektListe@@QAEJW4ObjTyp@@@Z               	@669
	?GetObjectGUID@GeoDB@@QAEJJPAU_GUID@@@Z                     	@708
	?GetObjectGUIDFeature@GeoDB@@QAEJJJPAU_GUID@@@Z             	@709
	?GetObjectList@CIdentifikator@@QAEHAAV?$set@JV?$less@J@@@@@Z	@695
	?GetObjectType@GeoDB@@QAE?AW4ErrCode@@JPAH@Z                	@710
	?GetPBDData@PBD_DB@@QAE?AW4ErrCode@@PAUtagPBDDATA@@@Z       	@402
	?GetPalette@Sicht@@QAEPAUHPALETTE__@@XZ                     	@403
	?GetPen@CIdentifikator@@QAEPAVPen@@W4VisType@@F@Z           	@404
	?GetPointCount@CIdTree@@QAEJJ@Z                             	@683
	?GetPointCount@ObjektListe@@QAEJXZ                          	@670
	?GetPreLoad@ProFile@@QAEHPAD@Z                              	@405
	?GetPriority@@YAPAXPAX@Z                                    	@406
	?GetProcAddress@CoordTrans@@QAEP6GHXZPBD@Z                  	@407
	?GetProcAddress@DLLBind@@QAEP6GHXZPBD@Z                     	@408
	?GetProjectStorage@GeoDB@@QAEHPAPAUIStorage@@@Z             	@409
	?GetRCode@ObjektListe@@QAEJJ@Z                              	@410
	?GetSZ@CRegistry@@QAEHPBDPADAAJ@Z                           	@411
	?GetSightTargets@Sicht@@AAE?AW4ErrCode@@W4TType@@PAPAJAAFPAPAF@Z	@412
	?GetSubSZ@CRegistry@@QAEHPBDPADAAK@Z                        	@413
	?GetTempDBName@DBTemplate@@QAEHPAD@Z                        	@414
	?GetTextCount@CIdTree@@QAEJJ@Z                              	@684
	?GetTextCount@ObjektListe@@QAEJXZ                           	@671
	?GetTransformParam@CoordTrans@@QAEHNNPAPAX@Z                	@415
	?GetTypes@Sicht@@QAEFJF@Z                                   	@416
	?GetUniqueICode@GeoDB@@QAEJH@Z                              	@417
	?GetUniqueMCode@GeoDB@@QAEJH@Z                              	@418
	?GetUniqueRCode@GeoDB@@QAEJXZ                               	@419
	?GetUniqueTempONr@GeoDB@@QAEJXZ                             	@420
	?GetVisInfo@CIdentifikator@@QAEPAVVisInfo@@W4VisType@@@Z    	@421
	?Id@ExtShapeObject@@UAEAAJXZ                                	@422
	?IdFilter@GeoDB@@QAE?AW4ErrCode@@AAVObjFeld@@AAVCIdTree@@@Z 	@423
	?IdFilter@GeoDB@@QAE?AW4ErrCode@@AAVObjFeld@@PAD@Z          	@424
	?IdFilterAll@GeoDB@@QAE?AW4ErrCode@@AAVObjFeld@@@Z          	@425
	?IdFilterNew@GeoDB@@QAE?AW4ErrCode@@AAVObjFeld@@PAD@Z       	@426
	?IdentTree@CIdTree@@QAEAAVCIdTree1@@XZ                      	@427
	?IncrementObjectCount@CIdTree@@QAEJAAVGeoDB@@JW4ObjTyp@@J@Z 	@696
	?IncrementObjectCount@CIdentifikator@@QAEJW4ObjTyp@@@Z      	@678
	?IncrementObjectCount@ObjektListe@@QAEJW4ObjTyp@@@Z         	@679
	?InflateCont@ObjContainer@@QAE?AV1@F@Z                      	@428
	?Inhalt@Masche@@QAENPAVCoordTrans@@@Z                       	@429
	?InitAreaCount@CIdTree@@QAEJJJ@Z                            	@685
	?InitComPbd@PBD_DB@@QAEHAAVGeoDB@@@Z                        	@430
	?InitComplexCount@CIdTree@@QAEJJJ@Z                         	@686
	?InitLineCount@CIdTree@@QAEJJJ@Z                            	@687
	?InitObjectCount@CIdTree@@QAEJJW4ObjTyp@@J@Z                	@688
	?InitObjectCount@CIdentifikator@@QAEJW4ObjTyp@@J@Z          	@689
	?InitPBD@PBD_DB@@QAEHAAVGeoDB@@PADH@Z                       	@431
	?InitPointCount@CIdTree@@QAEJJJ@Z                           	@690
	?InitTextCount@CIdTree@@QAEJJJ@Z                            	@691
	?InvTransform@CoordTrans@@QAEHPAN0@Z                        	@432
	?InvTransform@CoordTrans@@QAEHPAVDoublePair@@F@Z            	@433
	?InvTransformEx@CoordTrans@@QAEHPAN0PAX@Z                   	@434
	?InvTransformEx@CoordTrans@@QAEHPAVDoublePair@@HPAX@Z       	@435
	?IsObjectInList@CIdentifikator@@QAEHJ@Z                     	@697
	?IsValidIdent@@YAHJ@Z                                       	@436
	?IsValidMCode@@YAHJ@Z                                       	@437
	?IsValidONr@@YAHPAUHPROJECT__@@J@Z                          	@438
	?IsValidRCode@@YAHJ@Z                                       	@439
	?LastRec@DBTemplate@@QAEJF@Z                                	@440
	?MTyp@DoubleMerkmal@@UAEFXZ                                 	@441
	?MTyp@IntMerkmal@@UAEFXZ                                    	@442
	?MTyp@PBD_Merkmal@@UAEFXZ                                   	@443
	?MTyp@TextMerkmal@@UAEFXZ                                   	@444
	?MakeFont@@YAPAVFont@@PAVTVisInfo@@VDimension@@@Z           	@445
	?Metric@CoordTrans@@QAEHABJ0PAN1@Z                          	@446
	?Metric@CoordTrans@@QAEHABVPunkt@@PAN1@Z                    	@447
	?MetricEx@CoordTrans@@QAEHABVPunkt@@PAN1PAX@Z               	@448
	?MetricEx@CoordTrans@@QAEHJJPAN0PAX@Z                       	@449
	?ModGIPunkt@GeoDB@@QAE?AW4ErrCode@@JAAVPunkt@@@Z            	@450
	?ModGIPunkt@ObjektListe@@QAEHJAAVPunkt@@@Z                  	@451
	?ModGIText@ObjektListe@@QAEHJAAVPunkt@@@Z                   	@452
	?ModIdent@ObjektListe@@QAEHJJJ@Z                            	@453
	?ModPBDData@PBD_DB@@QAE?AW4ErrCode@@PAUtagPBDDATA@@@Z       	@454
	?ModifyIdent@CIdTree@@QAEHAAVGeoDB@@JJJ@Z                   	@698
	?MoveAttribs@Sicht@@QAE?AW4ErrCode@@PAV1@@Z                 	@455
	?Native@CoordTrans@@QAEHABN0AAVPunkt@@@Z                    	@456
	?Native@CoordTrans@@QAEHABN0PAJ1@Z                          	@457
	?NativeEx@CoordTrans@@QAEHABN0AAVPunkt@@PAX@Z               	@458
	?NativeEx@CoordTrans@@QAEHABN0PAJ1PAX@Z                     	@459
	?NewObj@ObjFeld@@UAEPAVObjNummer@@AAVObjNummerCreator@@J@Z  	@460
	?NewObj@ObjRelFeld@@UAEPAVObjNummer@@AAVObjNummerCreator@@J@Z	@461
	?NewTarget@Sicht@@AAE?AW4ErrCode@@W4TType@@JPAVVisInfo@@F@Z 	@462
	?NextONr@ObjektListeIterator@@QAEJXZ                        	@463
	?OTypToVTyp@@YA?AW4VisType@@W4ObjTyp@@@Z                    	@464
	?ObjIdTree@ObjektListe@@QAEAAVCTree@@XZ                     	@465
	?ObjNr@ExtShapeObject@@UAEAAJXZ                             	@466
	?ObjNumTree@ObjektListe@@QAEAAVCTree@@XZ                    	@467
	?Open@DBTemplate@@UAE?AW4ErrCode@@PAD0K@Z                   	@468
	?Open@DBTemplate@@UAE?AW4ErrCode@@PAUIStorage@@@Z           	@469
	?Open@GeoDB@@UAE?AW4ErrCode@@PAD0K@Z                        	@470
	?Open@GeoDB@@UAE?AW4ErrCode@@PAUIStorage@@@Z                	@471
	?Open@PBD_DB@@UAE?AW4ErrCode@@PAUIStorage@@@Z               	@472
	?OverlayGI@GeoDB@@QAE?AW4ErrCode@@JPAVGeoObjekt@@@Z         	@474
	?PrioTree@CIdTree@@QAEAAVCIdTree2@@XZ                       	@475
	?Priority@CIdentifikator@@QAEAAFW4VisType@@@Z               	@476
	?PutGI@GeoDB@@QAE?AW4ErrCode@@PAVGeoObjekt@@@Z              	@477
	?PutMiText@Sicht@@QAE?AW4ErrCode@@JPAD@Z                    	@478
	?ReReadHeader@GeoDB@@QAEXXZ                                 	@479
	?ReadText@GeoDB@@QAE?AW4ErrCode@@JAAPADAAW4TextObjTyp@@@Z   	@480
	?ReadVisInfoFromDefaultSight@@YA?AW4ErrCode@@AAVGeoDB@@JPAUHPALETTE__@@AAPAVVisInfo@@W4VisType@@@Z	@481
	?ReadVisInfoFromSight@Sicht@@QAEHJPAUHPALETTE__@@AAPAVVisInfo@@W4VisType@@@Z	@482
	?Refresh@CoordTrans@@QAEHH@Z                                	@483
	?RelInfo@GeoDB@@QAE?AW4ErrCode@@JAAVObjFeld@@@Z             	@484
	?ReleaseIgnoreTree@CIdentifikator@@SAXXZ                    	@485
	?ReleasePBDTempTree@PBD_DB@@QAEXXZ                          	@486
	?Reload@CoordTrans@@QAEHH@Z                                 	@487
	?RemoveFromTempTree@PBD_DB@@QAEHAAVPBD_Data@@@Z             	@488
	?RemoveObjectFromList@CIdentifikator@@QAEHAAVGeoDB@@J@Z     	@699
	?Rename@Sicht@@QAE?AW4ErrCode@@PBD@Z                        	@489
	?ReportVisInfoError@CIdentifikator@@QAE?AW4ErrCode@@W42@W4RoutCode@@F@Z	@490
	?ResetAllLoaded@CIdTree@@QAEXXZ                             	@491
	?ResetAttributes@ExtShapeObject@@UAEXXZ                     	@492
	?ResetObjectList@CIdentifikator@@QAEXXZ                     	@700
	?ResetResources@CIdentifikator@@QAEXXZ                      	@493
	?RestoreAccess@DBTemplate@@UAE?AW4ErrCode@@J@Z              	@494
	?RetrieveORCode@@YA?AW4ErrCode@@PAUHPROJECT__@@JAAJ@Z       	@495
	?RetrieveObjStatus@ObjektListe@@QAEFJ@Z                     	@496
	?RetrieveObjTyp@ObjektListe@@QAE?AW4ObjTyp@@J@Z             	@497
	?RetrievePureGeometrie@GeoObjekt@@QAEJPAPAJ00@Z             	@498
	?RetrieveVisInfo@CIdTree@@QAEHJFAAUtagVISINFO@@@Z           	@499
	?RetrieveVisInfo@Sicht@@QAEHJFAAUtagVISINFO@@@Z             	@500
	?RigInfo@GeoDB@@QAE?AW4ErrCode@@JAAVObjFeld@@@Z             	@501
	?Rotation@CIdentifikator@@QAEFXZ                            	@502
	?RoundFrame@CIdentifikator@@QAEHXZ                          	@503
	?SaveInDB@PBD_Merkmal@@UAE?AW4ErrCode@@JF@Z                 	@504
	?SaveInDB@TextMerkmal@@UAE?AW4ErrCode@@JF@Z                 	@505
	?SaveInPBD@PBD_Data@@UAE?AW4ErrCode@@XZ                     	@506
	?SaveInPBD@PBD_Ident@@UAE?AW4ErrCode@@XZ                    	@507
	?SaveInPBD@PBD_Merkmal@@UAE?AW4ErrCode@@XZ                  	@508
	?SaveInPBD@PBD_Relation@@UAE?AW4ErrCode@@XZ                 	@509
	?Scale@CoordTrans@@QAEHABN0AAVPunkt@@@Z                     	@510
	?Scale@CoordTrans@@QAEHABN0PAJ1@Z                           	@511
	?SchwerPunkt@Masche@@QAENAAVPunkt@@@Z                       	@512
	?SetAccess@DBTemplate@@UAE?AW4ErrCode@@J@Z                  	@513
	?SetAttribs@Sicht@@QAE?AW4ErrCode@@JJ@Z                     	@514
	?SetAttributes@ExtShapeObject@@UAEPAVVisInfo@@PAVCIdentifikator@@VDimension@@AAVCTable@@W4VisType@@F@Z	@515
	?SetCompleteDefaultVisInfo@@YA?AW4ErrCode@@AAVGeoDB@@JPAPAVVisInfo@@F@Z	@516
	?SetCompleteVisInfo@Sicht@@QAE?AW4ErrCode@@JPAPAVVisInfo@@F@Z	@517
	?SetCont@Kante@@QAEXQAJ@Z                                   	@518
	?SetCont@Masche@@QAEXQAJ@Z                                  	@519
	?SetCont@Sicht@@QAEHAAVObjContainer@@@Z                     	@520
	?SetDBName@DBTemplate@@QAEXPAD@Z                            	@521
	?SetDWORD@CRegistry@@QAEHPBDK@Z                             	@522
	?SetDirty@DBTemplate@@UAEXH@Z                               	@523
	?SetDirty@GeoDB@@UAEXH@Z                                    	@524
	?SetDirty@PBD_DB@@UAEXH@Z                                   	@525
	?SetEntryText@HeaderEntry@@QAEXPAD@Z                        	@526
	?SetEscapement@ExtFont@@QAEFF@Z                             	@527
	?SetKurzText@PBD_Data@@QAEXPAD@Z                            	@528
	?SetLangText@PBD_Data@@QAEPADPAD@Z                          	@529
	?SetMetaDC@CIdentifikator@@QAEHH@Z                          	@530
	?SetObjRgn@Sicht@@QAEJJ@Z                                   	@531
	?SetObjectGUID@GeoDB@@QAEJJABU_GUID@@@Z                     	@711
	?SetObjectGUIDFeature@GeoDB@@QAEJJABU_GUID@@J@Z             	@712
	?SetObjectList@CIdentifikator@@QAEHJ@Z                      	@701
	?SetOrientation@ExtFont@@QAEFF@Z                            	@532
	?SetPreLoad@ProFile@@QAEHPADH@Z                             	@533
	?SetSZ@CRegistry@@QAEHPBD0@Z                                	@534
	?SetSecondColor@ExtPen@@QAEXVColor@@@Z                      	@535
	?SetSubSZ@CRegistry@@QAEHPBD0@Z                             	@536
	?SetVisName@VisInfo@@QAEXPAD@Z                              	@537
	?ShiftCont@ObjContainer@@QAEAAV1@AAVAusdehnung@@@Z          	@538
	?Size@BasicGeoText@@QAE?AVDimension@@XZ                     	@539
	?Size@CIdentifikator@@QAEAAVDimension@@W4VisType@@@Z        	@540
	?Text@GeoTextInd@@UBEPADXZ                                  	@541
	?Text@GeoTextIndOP@@UBEPADXZ                                	@569
	?TextBase@BasicGeoText@@UBEPADXZ                            	@725
	?TextBase@GeoTextIndOP@@UBEPADXZ                            	@582
	?TimedInsert@ObjektListe@@QAE?AT_ULARGE_INTEGER@@AAVExtShapeObjectDCreator@@W4ObjTyp@@@Z	@715
	?Transform@CoordTrans@@QAEHPAN0@Z                           	@543
	?Transform@CoordTrans@@QAEHPAVDoublePair@@F@Z               	@544
	?TransformEx@CoordTrans@@QAEHPAN0PAX@Z                      	@545
	?TransformEx@CoordTrans@@QAEHPAVDoublePair@@HPAX@Z          	@546
	?TypeDependendDraw@ExtShapeObject@@UAEXPAVCIdentifikator@@AAVCTable@@VDimension@@@Z	@547
	?UnScale@CoordTrans@@QAEHABJ0PAN1@Z                         	@548
	?UnScale@CoordTrans@@QAEHABVPunkt@@PAN1@Z                   	@549
	?UpdateIdents@PBD_DB@@QAEHJ@Z                               	@550
	?UpdateMCodes@PBD_DB@@QAEHJ@Z                               	@551
	?UpdateRCodes@PBD_DB@@QAEHJ@Z                               	@552
	?UserDelete@CIdTree1@@MAEXPAX@Z                             	@553
	?UserDelete@CIdTree2@@MAEXPAX@Z                             	@554
	?UserDelete@MerkmalsListe@@EAEXPAX@Z                        	@555
	?UserDelete@ObjFeld@@MAEXPAX@Z                              	@556
	?UserDelete@ObjRelFeld@@MAEXPAX@Z                           	@557
	?UserDelete@ObjektListe1@@MAEXPAX@Z                         	@558
	?UserDelete@ObjektListe2@@EAEXPAX@Z                         	@716
	?UserDelete@PBDTempTree@@MAEXPAX@Z                          	@559
	?VI@CIdentifikator@@QAEAAVVisInfo@@W4VisType@@@Z            	@560
	?VISINFOFromCPP@@YAPAUtagVISINFO@@PAVVisInfo@@@Z            	@561
	?VTypToOTyp@@YA?AW4ObjTyp@@W4VisType@@@Z                    	@562
	?VerifyGI@GeoDB@@QAEHPAVGeoObjekt@@@Z                       	@563
	?VisInfoFromC@@YAPAVVisInfo@@AAUtagVISINFO@@W4VisType@@@Z   	@564
	?Width@CIdentifikator@@QAEAAFXZ                             	@565
	?WriteBack@CIdTree@@QAE?AW4ErrCode@@PAD@Z                   	@566
	?WriteBack@HeaderEntry@@QAE?AW4ErrCode@@XZ                  	@567
	?WriteBackVisInfo@CIdTree@@IAE?AW4ErrCode@@PAVCIdentifikator@@AAVSicht@@W4VisType@@@Z	@568
	?WriteText@GeoDB@@QAE?AW4ErrCode@@JPADH@Z                   	@583
	?hasDistEx@CoordTrans@@QAEHXZ                               	@570
	?hasIdent@CIdTree@@IAEHAAVCTable@@J@Z                       	@571
	?hasIdentVType@CIdTree@@QAEHJW4VisType@@@Z                  	@665
	?hasTextMerkmal@TextMerkmal@@QAEHXZ                         	@572
	?hasVI@CIdentifikator@@QAEHW4VisType@@@Z                    	@573
	?iCnt@ExtPen@@QAEFXZ                                        	@574
	?isA@BasicGeoText@@UAE?AW4ObjTyp@@XZ                        	@575
	?isA@FVisInfo@@UAE?AW4VisType@@XZ                           	@576
	?isA@GeoDB@@UAE?AW4DBTyp@@XZ                                	@577
	?isA@GeoFlaeche@@UAE?AW4ObjTyp@@XZ                          	@578
	?isA@GeoKante@@UAE?AW4ObjTyp@@XZ                            	@579
	?isA@GeoKreis@@UAE?AW4ObjTyp@@XZ                            	@580
	?isA@GeoPunkt@@UAE?AW4ObjTyp@@XZ                            	@581
	?isA@GeoTextIndOP@@UAE?AW4ObjTyp@@XZ                        	@722
	?isA@KomplexObjekt@@UAE?AW4ObjTyp@@XZ                       	@584
	?isA@LVisInfo@@UAE?AW4VisType@@XZ                           	@585
	?isA@ObjFeld@@UAE?AW4ObjFeldTyp@@XZ                         	@586
	?isA@ObjRelFeld@@UAE?AW4ObjFeldTyp@@XZ                      	@587
	?isA@PBD_DB@@UAE?AW4DBTyp@@XZ                               	@588
	?isA@PVisInfo@@UAE?AW4VisType@@XZ                           	@589
	?isA@TVisInfo@@UAE?AW4VisType@@XZ                           	@590
	?isA@VisInfo@@UAE?AW4VisType@@XZ                            	@591
	?isBkConture@CIdentifikator@@QAEHXZ                         	@592
	?isMetric@CoordTrans@@QAEHXZ                                	@593
	?isObjectVisible@ObjektListe@@QAEHJ@Z                       	@594
	?isOpaque@CIdentifikator@@QAEHXZ                            	@595
	?isText@GeoText@@UAE?AW4TextObjTyp@@XZ                      	@596
	?isText@GeoTextInd@@UAE?AW4TextObjTyp@@XZ                   	@597
	?isText@GeoTextIndOP@@UAE?AW4TextObjTyp@@XZ                 	@723
	?isUsed@CIdTree@@QAEHAAVGeoDB@@J@Z                          	@598
	?isValid@CRegistry@@QAEHXZ                                  	@599
	?maxCont@Kante@@QAE?AVObjContainer@@AAV2@@Z                 	@600
	?maxCont@Masche@@QAE?AVObjContainer@@AAV2@@Z                	@601
	?minCont@Kante@@QAE?AVObjContainer@@AAV2@@Z                 	@602
	?minCont@Masche@@QAE?AVObjContainer@@AAV2@@Z                	@603
	?rCId@CIdRef@@QAEAAVCIdentifikator@@XZ                      	@604
	?toFill@CIdentifikator@@QAEFW4VisType@@@Z                   	@605
	?toPaint@CIdTree@@QAEFJF@Z                                  	@606
	AssociatedObjekt                                            	@607
	AssociatedTextObjekt                                        	@608
	CreateTarget                                                	@609
	DelAllRelations                                             	@610
	DelLink                                                     	@717
	DelLinkVIO                                                  	@718
	DelLinkVMO                                                  	@719
	DelRelation                                                 	@611
	DelText                                                     	@612
	ExpandPalette                                               	@615
	ExpandPaletteColor                                          	@616
	FindLong                                                    	@617
	FindPattern                                                 	@618
	FormatDate                                                  	@619
	GetKomplexObjects                                           	@620
	GetMerkDouble                                               	@621
	GetMerkLen                                                  	@622
	GetMerkLong                                                 	@623
	GetMiText                                                   	@624
	GetTarget                                                   	@625
	GetText                                                     	@626
	GetTextLen                                                  	@627
	GetTextOld                                                  	@628
	InitTrias02                                                 	@629
	IsEmptyIDL                                                  	@713
	MakeCompleteNewVisInfo                                      	@630
	MakeNewVI                                                   	@631
	OvlAreaObject                                               	@632
	OvlLineObject                                               	@633
	OvlPunktObject                                              	@634
	PutAreaObject                                               	@635
	PutIdent                                                    	@636
	PutKomplexObject                                            	@637
	PutLineObject                                               	@638
	PutLink                                                     	@639
	PutLinkVIO                                                  	@720
	PutLinkVMO                                                  	@721
	PutMiText                                                   	@640
	PutObjTemplate                                              	@641
	PutPunktObject                                              	@642
	PutRelation                                                 	@643
	PutText                                                     	@644
	PutTextEx                                                   	@645
	PutTextObject                                               	@646
	TextFind                                                    	@647
	VerifyIdent                                                 	@714
	_DrawRectangle@20                                           	@613
	_DtoA@16                                                    	@614
	del                                                         	@648
	delgi                                                       	@649
	delgif                                                      	@650
	delgil                                                      	@651
	delgip                                                      	@652
	delid                                                       	@653
	delmi                                                       	@654
	fndgi                                                       	@655
	getgi                                                       	@656
	getrig                                                      	@657
	htfunc                                                      	@658
	htmanr                                                      	@659
	isDBSubTextObjekt                                           	@660
	isDBSubTextObjektInd                                        	@661
	isDBTextObjekt                                              	@662
	isalike                                                     	@663
	modid                                                       	@664
