DESCRIPTION 'TRiASDMP debugging library V3.2b'

EXPORTS


; DLLXPORT_BEGIN:
;
; Created by Dllxpt32 version 3.11.000 (c) 1994-1997 by Paul Fonte (pfonte@compuserve.com)
;


;----------------  D_LIST_C.OBJ  ----------------

  ?clear@D_VoidList_c@@QAEXXZ @2 NONAME
  ?insert@D_VoidList_c@@QAEXPAX@Z @3 NONAME
  ?remove@D_VoidList_c@@QAEXXZ @4 NONAME
  ??0D_VoidListNode_c@@QAE@PAXPAV0@@Z @5 NONAME
  ?index@D_VoidList_c@@QBEIP6AHPAX0@Z0@Z @6 NONAME
  ?at@D_VoidList_c@@QAEPAXI@Z @7 NONAME

;----------------  D_SUPPORT_C.OBJ  ----------------

  ??0D_SupportInit_c@@QAE@XZ @8 NONAME
  ??1D_SupportInit_c@@QAE@XZ @9 NONAME
  ??_Sofstream@@6B@ @10 NONAME
;  ??_Gofstream@@UAEPAXI@Z @11 NONAME
  ?D_UpdateMaskInfos@@YAXXZ @12 NONAME
;  ??_GD_MaskInfo_c@@QAEPAXI@Z @13 NONAME
  ??0odbgstream@@QAE@H@Z @14 NONAME
  ??_7odbgstream@@6B@ @15 NONAME
  ??_8odbgstream@@7B@ @16 NONAME
;  ??_Godbgstream@@UAEPAXI@Z @17 NONAME
  ??_Dodbgstream@@QAEXXZ @18 NONAME
  ??1odbgstream@@UAE@XZ @19 NONAME
  ??0debugbuf@@QAE@H@Z @20 NONAME
  ??_7debugbuf@@6B@ @21 NONAME
  ?underflow@debugbuf@@MAEHXZ @22 NONAME
;  ??_Gdebugbuf@@UAEPAXI@Z @23 NONAME
  ??1debugbuf@@UAE@XZ @24 NONAME
  ?overflow@debugbuf@@MAEHH@Z @25 NONAME
  ?sync@debugbuf@@MAEHXZ @26 NONAME
  ?put_char@debugbuf@@AAEXH@Z @27 NONAME
  ?put_buffer@debugbuf@@AAEXXZ @28 NONAME
  ?DoPrintFor@D_Support_c@@SAHPBD0I@Z @29 NONAME
  ?StackName@D_StackInfo_c@@QBEPBDXZ @30 NONAME
  ??0D_SupportAux_c@@AAE@XZ @31 NONAME
  ??0D_SupportAux_c@@AAE@ABV0@@Z @32 NONAME
  ?DoSelfTestFor@D_Support_c@@SAHPBD0H@Z @33 NONAME
  ??4D_SupportAux_c@@AAEAAV0@ABV0@@Z @34 NONAME
  ??0D_Support_c@@AAE@XZ @35 NONAME
  ?SetDoPrintFor@D_Support_c@@SAHW4Scope@1@PBDHH@Z @36 NONAME
  ??0D_Support_c@@AAE@AAV0@@Z @37 NONAME
  ??4D_Support_c@@AAEAAV0@AAV0@@Z @38 NONAME
  ?SetDoSelfTestFor@D_Support_c@@SAHPBDW4Scope@1@HH@Z @39 NONAME
  ?D_Stream@D_SupportAux_c@@SAAAVostream@@XZ @40 NONAME
  ?StackName@D_StackName_c@@QAEPBDXZ @41 NONAME
  ??0D_StackName_c@@AAE@XZ @42 NONAME
  ?SetDoPrintFor@D_Support_c@@CAHPBDH@Z @43 NONAME
  ??0D_StackName_c@@AAE@ABV0@@Z @44 NONAME
  ??4D_StackName_c@@AAEAAV0@ABV0@@Z @45 NONAME
  ?SetDoSelfTestFor@D_Support_c@@CAHPBDH@Z @46 NONAME
  ?SetFileNameStrip@D_Support_c@@SAXI@Z @47 NONAME
  ?SetFileNameStrip@D_Support_c@@CAHPBD@Z @48 NONAME
  ?SetRefreshInterval@D_Support_c@@SAXJ@Z @49 NONAME
  ?SetRefreshInterval@D_Support_c@@CAHPBD@Z @50 NONAME
  ??0D_VoidList_c@@QAE@P6AXPAX0@Z0@Z @51 NONAME
  ?entries@D_VoidList_c@@QBEIXZ @52 NONAME
  ?Prefix@D_Support_c@@SAPBDPBDK0H@Z @53 NONAME
  ??0D_Time_c@@QAE@XZ @54 NONAME
  ??_7D_Time_c@@6B@ @55 NONAME
  ??1D_Time_c@@UAE@XZ @56 NONAME
  ?GetSec@D_Time_c@@QBEJXZ @57 NONAME
;  ??_GD_Time_c@@UAEPAXI@Z @58 NONAME
  ?GetUsec@D_Time_c@@QBEJXZ @59 NONAME
  ?SetPrefix@D_Support_c@@SAHPBDW4Scope@1@H0H@Z @60 NONAME
  ?SetPrefix@D_Support_c@@CAHPBDH@Z @61 NONAME
  ?D_Stream@D_Support_c@@SAAAVostream@@XZ @62 NONAME
  ?Dump@D_Support_c@@SAXAAVostream@@@Z @63 NONAME
  ?GetInfo@D_LevelNumberInfo_c@@QAEJXZ @64 NONAME
  ?GetInfo@D_LevelStringInfo_c@@QAEPADXZ @65 NONAME
  ?Dump@D_Support_c@@CAHPBD@Z @66 NONAME
  ??0D_String_c@@QAE@XZ @67 NONAME
  ??4D_String_c@@QAEAAV0@PBD@Z @68 NONAME
  ??YD_String_c@@QAEAAV0@PBD@Z @69 NONAME
  ?data@D_String_c@@QBEPBDXZ @70 NONAME
  ?AsPtr@CL_String@@QBEPBDXZ @71 NONAME
  ?length@D_String_c@@QBEIXZ @72 NONAME
  ?Size@CL_String@@QBEJXZ @73 NONAME
  ??BD_String_c@@QBEPBDXZ @74 NONAME
  ??BCL_String@@QBEPBDXZ @75 NONAME
  ?index@D_String_c@@QAEIPBD@Z @76 NONAME
  ?replace@D_String_c@@QAEXIIPBD@Z @77 NONAME
  ??0D_MaskInfo_c@@QAE@PBDW4Scope@D_Support_c@@HHJ@Z @78 NONAME
  ??1D_VoidList_c@@QAE@XZ @79 NONAME
  ??0D_RegExp_c@@QAE@PBD@Z @80 NONAME
  ??0D_String_c@@QAE@PBD@Z @81 NONAME
  ??1D_String_c@@QAE@XZ @82 NONAME
  ?SetD_Stream@D_Support_c@@CAHPBD@Z @83 NONAME
  ??0D_MaskInfo_c@@QAE@PBDW4Scope@D_Support_c@@HHPAD@Z @84 NONAME
  ??1D_MaskInfo_c@@QAE@XZ @85 NONAME
  ?GetRegExpStatus@D_MaskInfo_c@@QAE?AW4statVal@D_RegExp_c@@XZ @86 NONAME
  ?status@D_RegExp_c@@QAE?AW4statVal@1@XZ @87 NONAME
  ?LastError@CL_RegExpr@@QBE?AVCL_String@@XZ @88 NONAME
  ?Enter@D_Support_c@@SAXXZ @89 NONAME
  ?Compare@D_MaskInfo_c@@QBEHPBD@Z @90 NONAME
  ??RD_String_c@@QBE?AV0@ABVD_RegExp_c@@@Z @91 NONAME
  ??RCL_String@@QBE?AV0@JJ@Z @92 NONAME
  ??0D_String_c@@QAE@ABV0@@Z @93 NONAME
  ??8@YAHABVD_String_c@@0@Z @94 NONAME
  ?Leave@D_Support_c@@SAXXZ @95 NONAME
  ??0D_StackName_c@@QAE@PBD@Z @96 NONAME
  ??0D_StackInfo_c@@QAE@PAVD_StackName_c@@@Z @97 NONAME
  ?IncCounter@D_StackInfo_c@@QAEXXZ @98 NONAME
  ?CompareMask@D_MaskInfo_c@@QBEHPBD@Z @99 NONAME
  ?GetMaskStr@D_MaskInfo_c@@QAEAAVD_String_c@@XZ @100 NONAME
  ?GetLevelInfos@D_MaskInfo_c@@QAEAAVD_VoidList_c@@XZ @101 NONAME
  ??1D_StackName_c@@QAE@XZ @102 NONAME
  ?Counter@D_StackInfo_c@@QBEIXZ @103 NONAME
  ?DecCounter@D_StackInfo_c@@QAEXXZ @104 NONAME
  ?_delete_level_info@D_MaskInfo_c@@CAXPAX0@Z @105 NONAME
  ??1D_RegExp_c@@QAE@XZ @106 NONAME
  D_C_Support_Enter @107 NONAME
  ?SetLevelInfo@D_MaskInfo_c@@QAEXW4Scope@D_Support_c@@HHPAD@Z @108 NONAME
  ??0D_LevelStringInfo_c@@QAE@W4Scope@D_Support_c@@HHPAD@Z @109 NONAME
  ??_7D_LevelStringInfo_c@@6B@ @110 NONAME
  ??0D_LevelInfo_c@@QAE@W4Scope@D_Support_c@@HH@Z @111 NONAME
  ??_7D_LevelInfo_c@@6B@ @112 NONAME
  ??4D_LevelInfo_c@@UAEAAV0@ABV0@@Z @113 NONAME
  ??1D_LevelInfo_c@@UAE@XZ @114 NONAME
;  ??_GD_LevelInfo_c@@UAEPAXI@Z @115 NONAME
  ??4D_LevelStringInfo_c@@UAEAAV0@ABV0@@Z @116 NONAME
  ?SetInfo@D_LevelStringInfo_c@@QAEXPAD@Z @117 NONAME
  ?estrdup@D_LevelStringInfo_c@@CAPADPBD@Z @118 NONAME
  ?_print@D_LevelStringInfo_c@@EAEXAAVostream@@@Z @119 NONAME
  ??_C@_0BN@CLDA@D_LevelNumberInfo_c?3?5_no?5?$DN?5?$FL?$AA@ @120 NONAME
  ??_C@_0M@BDJO@?$FN?5_info?5?$DN?5?$FL?$AA@ @121 NONAME
  ??_C@_02DIMO@?$FN?6?$AA@ @122 NONAME
;  ??_GD_LevelStringInfo_c@@UAEPAXI@Z @123 NONAME
  ??1D_LevelStringInfo_c@@UAE@XZ @124 NONAME
  ??0D_level_info_for_find@@QAE@W4Scope@D_Support_c@@H@Z @125 NONAME
  ?FindLevelInfo@D_MaskInfo_c@@SAHABVD_LevelInfo_c@@PAX@Z @126 NONAME
  D_C_Support_Leave @127 NONAME
  D_C_Support_Prefix @128 NONAME
  D_C_Support_DoPrintFor @129 NONAME
  D_C_Support_DoSelfTestFor @130 NONAME
  D_C_Support_Sprintf @131 NONAME
  ?SetLevelInfo@D_MaskInfo_c@@QAEXW4Scope@D_Support_c@@HHJ@Z @132 NONAME
  ??0D_LevelNumberInfo_c@@QAE@W4Scope@D_Support_c@@HHJ@Z @133 NONAME
  ??_7D_LevelNumberInfo_c@@6B@ @134 NONAME
  ??4D_LevelNumberInfo_c@@UAEAAV0@ABV0@@Z @135 NONAME
  ?_print@D_LevelNumberInfo_c@@EAEXAAVostream@@@Z @136 NONAME
;  ??_GD_LevelNumberInfo_c@@UAEPAXI@Z @137 NONAME
  ??1D_LevelNumberInfo_c@@UAE@XZ @138 NONAME
  D_C_Support_Fprintf @139 NONAME

;----------------  D_TIME_C.OBJ  ----------------

  ?Set@D_Time_c@@QAEXXZ @140 NONAME
  ?Set@D_Time_c@@QAEXJJ@Z @141 NONAME
  ??4D_Time_c@@QAEAAV0@ABV0@@Z @142 NONAME
  ??6@YAAAVostream@@AAV0@ABVD_Time_c@@@Z @143 NONAME
  ??8@YAHABVD_Time_c@@0@Z @144 NONAME
  ??9@YAHABVD_Time_c@@0@Z @145 NONAME
  ?GetSec@D_Time_c@@QBEJXZ @146 NONAME
  ?GetUsec@D_Time_c@@QBEJXZ @147 NONAME

;
; :DLLXPORT_END
