DESCRIPTION     'TRIAS® Framework'

EXPORTS
	??0Accel@@QAE@PAUHACCEL__@@@Z                               	@1	NONAME
	??0Accel@@QAE@VResID@@@Z                                    	@2	NONAME
	??0App@@IAE@XZ                                              	@3	NONAME
	??0AppWindow@@IAE@XZ                                        	@4	NONAME
	??0AppWindow@@QAE@ABV0@@Z                                   	@5	NONAME
	??0BandingPrinter@@IAE@PBDPAVPrintingDevice@@@Z             	@6	NONAME
	??0BandingPrinter@@QAE@ABV0@@Z                              	@7	NONAME
	??0BaseListBox@@QAE@PAVDialogWindow@@VResID@@@Z             	@8	NONAME
	??0BaseListBox@@QAE@PAVWindow@@VCvID@@VPoint@@VDimension@@@Z	@9	NONAME
	??0BaseListBox@@QAE@XZ                                      	@10	NONAME
	??0Bitmap@@QAE@PAUHBITMAP__@@@Z                             	@11	NONAME
	??0Bitmap@@QAE@VDimension@@HPAG@Z                           	@12	NONAME
	??0Bitmap@@QAE@VResID@@@Z                                   	@13	NONAME
	??0Bitmap@@QAE@VResID@@PAU_COLORMAP@@HI@Z                   	@1449	NONAME
	??0BitmapObject@@QAE@ABV0@@Z                                	@14	NONAME
	??0BitmapObject@@QAE@VPoint@@VDimension@@PAVBitmap@@@Z      	@15	NONAME
	??0Brush@@QAE@PAUHBRUSH__@@@Z                               	@16	NONAME
	??0Brush@@QAE@PAVBitmap@@@Z                                 	@17	NONAME
	??0Brush@@QAE@VColor@@W4StdHatchStyle@@@Z                   	@18	NONAME
	??0Brush@@QAE@W4StdBrush@@@Z                                	@19	NONAME
	??0Button@@IAE@PAVDialogWindow@@VResID@@@Z                  	@20	NONAME
	??0Button@@IAE@PAVWindow@@VCvID@@VPoint@@VDimension@@PBD@Z  	@21	NONAME
	??0Button@@IAE@XZ                                           	@22	NONAME
	??0CAnimateCtrl@@QAE@PAVDialogWindow@@VResID@@@Z            	@795	NONAME
	??0CAnimateCtrl@@QAE@PAVWindow@@VCvID@@VPoint@@VDimension@@K@Z	@796	NONAME
	??0CClipboard@@QAE@XZ                                       	@23	NONAME
	??0CDCExposeEvt@@QAE@XZ                                     	@1452	NONAME
	??0CDCWindow@@IAE@PAUHDC__@@AAVRectangle@@0@Z               	@24	NONAME
	??0CDCWindow@@QAE@ABV0@@Z                                   	@25	NONAME
	??0CImageList@@QAE@ABV0@@Z                                  	@26	NONAME
	??0CImageList@@QAE@PAU_IMAGELIST@@H@Z                       	@27	NONAME
	??0CImageList@@QAE@XZ                                       	@28	NONAME
	??0CImageListObject@@QAE@ABV0@@Z                            	@29	NONAME
	??0CImageListObject@@QAE@VPoint@@PAVCImageList@@HI@Z        	@30	NONAME
	??0CListViewCtrl@@QAE@PAVDialogWindow@@VResID@@@Z           	@31	NONAME
	??0CListViewCtrl@@QAE@PAVWindow@@VCvID@@VPoint@@VDimension@@K@Z	@32	NONAME
	??0COpenDialog@@QAE@ABV0@@Z                                 	@33	NONAME
	??0COpenDialog@@QAE@PAVWindow@@PAD@Z                        	@34	NONAME
	??0CPolyPolygonObject@@QAE@ABV0@@Z                          	@1013	NONAME
	??0CPolyPolygonObject@@QAE@VPoint@@PBV1@PBHHPAVPen@@HPAVBrush@@@Z	@1031	NONAME
	??0CPolygonObject@@QAE@ABV0@@Z                              	@1035	NONAME
	??0CPolygonObject@@QAE@VPoint@@PBV1@HPAVPen@@HPAVBrush@@@Z  	@1204	NONAME
	??0CProgressCtrl@@QAE@PAVDialogWindow@@VResID@@@Z           	@35	NONAME
	??0CProgressCtrl@@QAE@PAVWindow@@VCvID@@VPoint@@VDimension@@K@Z	@36	NONAME
	??0CPropertyPage@@IAE@XZ                                    	@37	NONAME
	??0CPropertyPage@@QAE@ABV0@@Z                               	@38	NONAME
	??0CPropertyPage@@QAE@VResID@@PBD@Z                         	@39	NONAME
	??0CPropertySheet@@QAE@ABV0@@Z                              	@40	NONAME
	??0CPropertySheet@@QAE@PBDPAVWindow@@KI@Z                   	@41	NONAME
	??0CSaveAsDialog@@QAE@ABV0@@Z                               	@42	NONAME
	??0CSaveAsDialog@@QAE@PAVWindow@@PAD@Z                      	@43	NONAME
	??0CSpinButtonCtrl@@QAE@PAVDialogWindow@@VResID@@@Z         	@44	NONAME
	??0CSpinButtonCtrl@@QAE@PAVWindow@@VCvID@@VPoint@@VDimension@@K@Z	@45	NONAME
	??0CStatusBarCtrl@@QAE@PAVDialogWindow@@VResID@@@Z          	@46	NONAME
	??0CStatusBarCtrl@@QAE@PAVWindow@@VCvID@@VPoint@@VDimension@@K@Z	@47	NONAME
	??0CStdColorDlg@@IAE@XZ                                     	@48	NONAME
	??0CStdColorDlg@@QAE@ABV0@@Z                                	@49	NONAME
	??0CStdDialog@@IAE@XZ                                       	@50	NONAME
	??0CStdDialog@@QAE@ABV0@@Z                                  	@51	NONAME
	??0CStdFileDlg@@IAE@XZ                                      	@52	NONAME
	??0CStdFileDlg@@QAE@ABV0@@Z                                 	@53	NONAME
	??0CToolBarCtrl@@QAE@PAVDialogWindow@@VResID@@@Z            	@54	NONAME
	??0CToolBarCtrl@@QAE@PAVWindow@@VCvID@@VPoint@@VDimension@@K@Z	@55	NONAME
	??0CToolTipCtrl@@QAE@PAVWindow@@@Z                          	@56	NONAME
	??0CTreeViewCtrl@@QAE@PAVDialogWindow@@VResID@@@Z           	@57	NONAME
	??0CTreeViewCtrl@@QAE@PAVWindow@@VCvID@@VPoint@@VDimension@@K@Z	@58	NONAME
	??0CVLink@@QAE@PAX0PAV0@@Z                                  	@59	NONAME
	??0CVLinked_List@@QAE@XZ                                    	@60	NONAME
	??0CVTable@@QAE@XZ                                          	@61	NONAME
	??0CheckBox@@QAE@PAVDialogWindow@@VResID@@@Z                	@62	NONAME
	??0CheckBox@@QAE@PAVWindow@@VCvID@@VPoint@@VDimension@@PBD@Z	@63	NONAME
	??0ChildAppWindow@@IAE@PAVWindow@@IPADJ@Z                   	@1399	NONAME
	??0ChildAppWindow@@IAE@PAVWindow@@PADJ@Z                    	@64	NONAME
	??0ChildAppWindow@@IAE@PAVWindow@@PAVAppWindow@@H@Z         	@65	NONAME
	??0ChildAppWindow@@QAE@ABV0@@Z                              	@66	NONAME
	??0Color@@QAE@EEE@Z                                         	@67	NONAME
	??0Color@@QAE@W4Colors@@@Z                                  	@68	NONAME
	??0Color@@QAE@XZ                                            	@69	NONAME
	??0ComboBox@@QAE@PAVDialogWindow@@VResID@@@Z                	@70	NONAME
	??0ComboBox@@QAE@PAVWindow@@VCvID@@VPoint@@VDimension@@W4ComboStyle@0@@Z	@71	NONAME
	??0ComboFocusChgEvt@@QAE@XZ                                 	@1454	NONAME
	??0Control@@IAE@PAVDialogWindow@@VResID@@PBD@Z              	@72	NONAME
	??0Control@@IAE@PAVWindow@@VCvID@@VPoint@@VDimension@@PBDK@Z	@73	NONAME
	??0Control@@IAE@XZ                                          	@74	NONAME
	??0ControlEvt@@QAE@XZ                                       	@1455	NONAME
	??0ControlWindow@@IAE@PAVControl@@@Z                        	@75	NONAME
	??0ControlWindow@@IAE@XZ                                    	@76	NONAME
	??0ControlWindow@@QAE@ABV0@@Z                               	@77	NONAME
	??0Cursor@@QAE@PAVWindow@@PAVBitmap@@@Z                     	@78	NONAME
	??0Cursor@@QAE@PAVWindow@@VDimension@@H@Z                   	@79	NONAME
	??0CvID@@QAE@I@Z                                            	@80	NONAME
	??0CvID@@QAE@PBD@Z                                          	@81	NONAME
	??0DeleteItemEvt@@QAE@XZ                                    	@1456	NONAME
	??0DialogWindow@@IAE@PAVWindow@@VResID@@H@Z                 	@82	NONAME
	??0DialogWindow@@IAE@XZ                                     	@83	NONAME
	??0DialogWindow@@QAE@ABV0@@Z                                	@84	NONAME
	??0Dimension@@QAE@JJ@Z                                      	@85	NONAME
	??0Dimension@@QAE@XZ                                        	@86	NONAME
	??0DrawItemEvt@@QAE@XZ                                      	@1457	NONAME
	??0DrawObject@@IAE@ABV0@@Z                                  	@87	NONAME
	??0DrawObject@@IAE@VPoint@@@Z                               	@88	NONAME
	??0DrawObject@@IAE@XZ                                       	@89	NONAME
	??0Edit@@IAE@PAVDialogWindow@@VResID@@@Z                    	@90	NONAME
	??0Edit@@IAE@PAVWindow@@VCvID@@VPoint@@VDimension@@@Z       	@91	NONAME
	??0Edit@@IAE@XZ                                             	@92	NONAME
	??0EditFocusChgEvt@@QAE@XZ                                  	@1458	NONAME
	??0EditWindow@@IAE@PAVDialogWindow@@VResID@@@Z              	@93	NONAME
	??0EditWindow@@IAE@PAVWindow@@VCvID@@VPoint@@VDimension@@@Z 	@94	NONAME
	??0EditWindow@@QAE@ABV0@@Z                                  	@95	NONAME
	??0EllipseObject@@QAE@ABV0@@Z                               	@96	NONAME
	??0EllipseObject@@QAE@VPoint@@VDimension@@PAVPen@@PAVBrush@@@Z	@97	NONAME
	??0ErrorBox@@QAE@PBDPAVWindow@@@Z                           	@98	NONAME
	??0Event@@QAE@IIJPAX@Z                                      	@1459	NONAME
	??0Event@@QAE@XZ                                            	@1460	NONAME
	??0EventContext@@IAE@XZ                                     	@99	NONAME
	??0EventContext@@QAE@ABV0@@Z                                	@100	NONAME
	??0ExposeEvt@@QAE@XZ                                        	@1461	NONAME
	??0FileListBox@@QAE@PAVDialogWindow@@VResID@@1@Z            	@101	NONAME
	??0FixedIcon@@QAE@PAVDialogWindow@@VResID@@@Z               	@102	NONAME
	??0FixedIcon@@QAE@PAVWindow@@VCvID@@VPoint@@VResID@@@Z      	@103	NONAME
	??0FixedText@@QAE@PAVDialogWindow@@VResID@@@Z               	@104	NONAME
	??0FixedText@@QAE@PAVWindow@@VCvID@@VPoint@@VDimension@@PBD@Z	@105	NONAME
	??0FmtTextObject@@QAE@ABV0@@Z                               	@106	NONAME
	??0FmtTextObject@@QAE@VPoint@@PBDPAVFont@@@Z                	@107	NONAME
	??0FmtTextObject@@QAE@VPoint@@PBDVColor@@PAVFont@@@Z        	@108	NONAME
	??0FocusChangeEvt@@QAE@XZ                                   	@1462	NONAME
	??0Font@@QAE@PAUHFONT__@@@Z                                 	@109	NONAME
	??0Font@@QAE@W4StdFamily@@VDimension@@PBD@Z                 	@110	NONAME
	??0Font@@QAE@W4StdFont@@@Z                                  	@111	NONAME
	??0GaugeBox@@QAE@PAVDialogWindow@@VResID@@@Z                	@112	NONAME
	??0GaugeBox@@QAE@PAVWindow@@VCvID@@VPoint@@VDimension@@PBD@Z	@113	NONAME
	??0GroupBox@@QAE@PAVDialogWindow@@VResID@@@Z                	@114	NONAME
	??0GroupBox@@QAE@PAVWindow@@VCvID@@VPoint@@VDimension@@PBD@Z	@115	NONAME
	??0HelpDisplay@@QAE@PBD@Z                                   	@116	NONAME
	??0HelpRequestEvt@@QAE@XZ                                   	@1463	NONAME
	??0HorizScrollBar@@QAE@PAVDialogWindow@@VResID@@@Z          	@117	NONAME
	??0HorizScrollBar@@QAE@PAVWindow@@VCvID@@VPoint@@VDimension@@@Z	@118	NONAME
	??0Icon@@QAE@PAUHICON__@@@Z                                 	@119	NONAME
	??0Icon@@QAE@VResID@@@Z                                     	@120	NONAME
	??0Icon@@QAE@W4StdIcon@@@Z                                  	@121	NONAME
	??0InfoBox@@QAE@PBD0PAVWindow@@@Z                           	@122	NONAME
	??0KeyEvt@@QAE@XZ                                           	@1464	NONAME
	??0LineObject@@QAE@ABV0@@Z                                  	@123	NONAME
	??0LineObject@@QAE@VPoint@@0PAVPen@@@Z                      	@124	NONAME
	??0ListBox@@QAE@PAVDialogWindow@@VResID@@@Z                 	@125	NONAME
	??0ListBox@@QAE@PAVWindow@@VCvID@@VPoint@@VDimension@@@Z    	@126	NONAME
	??0ListBox@@QAE@XZ                                          	@127	NONAME
	??0MeasureItemEvt@@QAE@XZ                                   	@1465	NONAME
	??0Menu@@IAE@PAX@Z                                          	@128	NONAME
	??0Menu@@QAE@PAUHMENU__@@@Z                                 	@129	NONAME
	??0Menu@@QAE@VResID@@@Z                                     	@130	NONAME
	??0Menu@@QAE@XZ                                             	@131	NONAME
	??0MenuCommandEvt@@QAE@XZ                                   	@1466	NONAME
	??0MenuInitEvt@@QAE@XZ                                      	@1471	NONAME
	??0MenuSelectEvt@@QAE@XZ                                    	@1472	NONAME
	??0MessBox@@QAE@PBD0PAVWindow@@@Z                           	@132	NONAME
	??0ModeLessDialog@@IAE@PAVWindow@@VResID@@@Z                	@133	NONAME
	??0ModeLessDialog@@QAE@ABV0@@Z                              	@134	NONAME
	??0MouseEvt@@QAE@XZ                                         	@1473	NONAME
	??0MoveEvt@@QAE@XZ                                          	@1474	NONAME
	??0MultiLineEdit@@QAE@PAVDialogWindow@@VResID@@@Z           	@135	NONAME
	??0MultiLineEdit@@QAE@PAVWindow@@VCvID@@VPoint@@VDimension@@@Z	@136	NONAME
	??0MultiSelListBox@@QAE@PAVDialogWindow@@VResID@@@Z         	@137	NONAME
	??0MultiSelListBox@@QAE@PAVWindow@@VCvID@@VPoint@@VDimension@@@Z	@138	NONAME
	??0MultiSelListBox@@QAE@XZ                                  	@139	NONAME
	??0MultiSelTabularListBox@@QAE@PAVDialogWindow@@VResID@@I@Z 	@140	NONAME
	??0MultiSelTabularListBox@@QAE@PAVWindow@@VCvID@@VPoint@@VDimension@@I@Z	@141	NONAME
	??0NotifyEvt@@QAE@XZ                                        	@1478	NONAME
	??0OwnerDrawEvt@@QAE@XZ                                     	@1479	NONAME
	??0Pair@@IAE@JJ@Z                                           	@142	NONAME
	??0Pair@@IAE@XZ                                             	@143	NONAME
	??0Pen@@QAE@PAUHPEN__@@@Z                                   	@144	NONAME
	??0Pen@@QAE@W4StdLineStyle@@IVColor@@@Z                     	@145	NONAME
	??0Point@@QAE@JJ@Z                                          	@146	NONAME
	??0Point@@QAE@XZ                                            	@147	NONAME
	??0Pointer@@QAE@PAUHICON__@@@Z                              	@148	NONAME
	??0Pointer@@QAE@PBDW4StdPointer@@@Z                         	@1443	NONAME
	??0Pointer@@QAE@VResID@@@Z                                  	@149	NONAME
	??0Pointer@@QAE@W4StdPointer@@@Z                            	@150	NONAME
	??0Printer@@IAE@PBDPAVPrintingDevice@@@Z                    	@151	NONAME
	??0Printer@@QAE@ABV0@@Z                                     	@152	NONAME
	??0PrinterErrorEvt@@QAE@XZ                                  	@1480	NONAME
	??0PrinterExposeEvt@@QAE@XZ                                 	@1481	NONAME
	??0PrintingDevice@@QAE@PBD@Z                                	@153	NONAME
	??0PushButton@@QAE@PAVDialogWindow@@VResID@@@Z              	@154	NONAME
	??0PushButton@@QAE@PAVWindow@@VCvID@@VPoint@@VDimension@@PBD@Z	@155	NONAME
	??0RadioButton@@QAE@PAVDialogWindow@@VResID@@@Z             	@156	NONAME
	??0RadioButton@@QAE@PAVWindow@@VCvID@@VPoint@@VDimension@@PBD@Z	@157	NONAME
	??0Range@@QAE@JJ@Z                                          	@158	NONAME
	??0Range@@QAE@XZ                                            	@159	NONAME
	??0ReSizeEvt@@QAE@XZ                                        	@1482	NONAME
	??0Rectangle@@QAE@JJJJ@Z                                    	@160	NONAME
	??0Rectangle@@QAE@VPoint@@0@Z                               	@161	NONAME
	??0Rectangle@@QAE@VPoint@@VDimension@@@Z                    	@162	NONAME
	??0Rectangle@@QAE@XZ                                        	@163	NONAME
	??0RectangleObject@@QAE@ABV0@@Z                             	@164	NONAME
	??0RectangleObject@@QAE@VPoint@@VDimension@@PAVPen@@PAVBrush@@@Z	@165	NONAME
	??0ResID@@QAE@I@Z                                           	@166	NONAME
	??0ResID@@QAE@IPAVResourceFile@@@Z                          	@167	NONAME
	??0ResID@@QAE@PBDPAVResourceFile@@@Z                        	@168	NONAME
	??0ResString@@QAE@ABV0@@Z                                   	@169	NONAME
	??0ResString@@QAE@VResID@@I@Z                               	@170	NONAME
	??0ResourceFile@@QAE@PBDH@Z                                 	@171	NONAME
	??0ScrollBar@@IAE@XZ                                        	@172	NONAME
	??0ScrollBar@@QAE@PAVDialogWindow@@VResID@@@Z               	@173	NONAME
	??0ScrollBar@@QAE@PAVWindow@@VCvID@@VPoint@@VDimension@@@Z  	@174	NONAME
	??0ScrollEvt@@QAE@XZ                                        	@1483	NONAME
	??0Selection@@QAE@JJ@Z                                      	@175	NONAME
	??0Selection@@QAE@XZ                                        	@176	NONAME
	??0ShapeObject@@QAE@ABV0@@Z                                 	@177	NONAME
	??0ShapeObject@@QAE@VPoint@@VDimension@@PAVPen@@PAVBrush@@@Z	@178	NONAME
	??0ShellWindow@@IAE@XZ                                      	@179	NONAME
	??0ShellWindow@@QAE@ABV0@@Z                                 	@180	NONAME
	??0SingleLineEdit@@QAE@PAVDialogWindow@@VResID@@@Z          	@181	NONAME
	??0SingleLineEdit@@QAE@PAVWindow@@PAUHWND__@@@Z             	@182	NONAME
	??0SingleLineEdit@@QAE@PAVWindow@@VCvID@@VPoint@@VDimension@@@Z	@183	NONAME
	??0SysMenu@@IAE@PAVWindow@@@Z                               	@184	NONAME
	??0SystemApp@@QAE@IPAUHINSTANCE__@@0PBDH@Z                  	@185	NONAME
	??0TabularListBox@@QAE@PAVDialogWindow@@VResID@@I@Z         	@186	NONAME
	??0TabularListBox@@QAE@PAVWindow@@VCvID@@VPoint@@VDimension@@I@Z	@187	NONAME
	??0TextControl@@IAE@PAVDialogWindow@@VResID@@@Z             	@188	NONAME
	??0TextControl@@IAE@PAVWindow@@VCvID@@VPoint@@VDimension@@@Z	@189	NONAME
	??0TextControl@@IAE@XZ                                      	@190	NONAME
	??0TextObject@@QAE@ABV0@@Z                                  	@191	NONAME
	??0TextObject@@QAE@VPoint@@PBDPAVFont@@@Z                   	@192	NONAME
	??0TextObject@@QAE@VPoint@@PBDVColor@@PAVFont@@@Z           	@193	NONAME
	??0ToolTipEvt@@QAE@XZ                                       	@1484	NONAME
	??0TopAppWindow@@IAE@JPBD@Z                                 	@788	NONAME
	??0TopAppWindow@@IAE@PAVAppWindow@@@Z                       	@194	NONAME
	??0TopAppWindow@@QAE@ABV0@@Z                                	@195	NONAME
	??0VertScrollBar@@QAE@PAVDialogWindow@@VResID@@@Z           	@196	NONAME
	??0VertScrollBar@@QAE@PAVWindow@@VCvID@@VPoint@@VDimension@@@Z	@197	NONAME
	??0WarningBox@@QAE@PBD0PAVWindow@@@Z                        	@198	NONAME
	??0Window@@IAE@XZ                                           	@199	NONAME
	??0Window@@QAE@ABV0@@Z                                      	@200	NONAME
	??0Window@@QAE@PAUHWND__@@@Z                                	@201	NONAME
	??0WndHorzScrollBar@@QAE@PAVWindow@@@Z                      	@202	NONAME
	??0WndVertScrollBar@@QAE@PAVWindow@@@Z                      	@203	NONAME
	??1Accel@@QAE@XZ                                            	@204	NONAME
	??1App@@QAE@XZ                                              	@205	NONAME
	??1AppWindow@@UAE@XZ                                        	@206	NONAME
	??1BandingPrinter@@UAE@XZ                                   	@207	NONAME
	??1BaseListBox@@QAE@XZ                                      	@208	NONAME
	??1Bitmap@@QAE@XZ                                           	@209	NONAME
	??1BitmapObject@@UAE@XZ                                     	@210	NONAME
	??1Brush@@QAE@XZ                                            	@211	NONAME
	??1Button@@QAE@XZ                                           	@212	NONAME
	??1CAnimateCtrl@@QAE@XZ                                     	@822	NONAME
	??1CClipboard@@QAE@XZ                                       	@213	NONAME
	??1CDCWindow@@UAE@XZ                                        	@214	NONAME
	??1CImageList@@UAE@XZ                                       	@215	NONAME
	??1CImageListObject@@UAE@XZ                                 	@216	NONAME
	??1CListViewCtrl@@QAE@XZ                                    	@217	NONAME
	??1COpenDialog@@UAE@XZ                                      	@218	NONAME
	??1CPolyPolygonObject@@UAE@XZ                               	@1236	NONAME
	??1CPolygonObject@@UAE@XZ                                   	@1238	NONAME
	??1CProgressCtrl@@QAE@XZ                                    	@219	NONAME
	??1CPropertyPage@@UAE@XZ                                    	@220	NONAME
	??1CPropertySheet@@UAE@XZ                                   	@221	NONAME
	??1CSaveAsDialog@@UAE@XZ                                    	@222	NONAME
	??1CSpinButtonCtrl@@QAE@XZ                                  	@223	NONAME
	??1CStatusBarCtrl@@QAE@XZ                                   	@224	NONAME
	??1CStdColorDlg@@UAE@XZ                                     	@225	NONAME
	??1CStdDialog@@UAE@XZ                                       	@226	NONAME
	??1CStdFileDlg@@UAE@XZ                                      	@227	NONAME
	??1CToolBarCtrl@@QAE@XZ                                     	@228	NONAME
	??1CToolTipCtrl@@QAE@XZ                                     	@229	NONAME
	??1CTreeViewCtrl@@QAE@XZ                                    	@230	NONAME
	??1CVLink@@QAE@XZ                                           	@231	NONAME
	??1CheckBox@@QAE@XZ                                         	@232	NONAME
	??1ChildAppWindow@@UAE@XZ                                   	@233	NONAME
	??1ComboBox@@QAE@XZ                                         	@234	NONAME
	??1Control@@QAE@XZ                                          	@235	NONAME
	??1ControlWindow@@UAE@XZ                                    	@236	NONAME
	??1Cursor@@QAE@XZ                                           	@237	NONAME
	??1DialogWindow@@UAE@XZ                                     	@238	NONAME
	??1DrawObject@@UAE@XZ                                       	@239	NONAME
	??1Edit@@QAE@XZ                                             	@240	NONAME
	??1EditWindow@@UAE@XZ                                       	@241	NONAME
	??1EllipseObject@@UAE@XZ                                    	@242	NONAME
	??1ErrorBox@@QAE@XZ                                         	@243	NONAME
	??1EventContext@@MAE@XZ                                     	@244	NONAME
	??1FileListBox@@QAE@XZ                                      	@245	NONAME
	??1FixedIcon@@QAE@XZ                                        	@246	NONAME
	??1FixedText@@QAE@XZ                                        	@247	NONAME
	??1FmtTextObject@@UAE@XZ                                    	@248	NONAME
	??1Font@@QAE@XZ                                             	@249	NONAME
	??1GaugeBox@@QAE@XZ                                         	@250	NONAME
	??1GroupBox@@QAE@XZ                                         	@251	NONAME
	??1HelpDisplay@@QAE@XZ                                      	@252	NONAME
	??1HorizScrollBar@@QAE@XZ                                   	@253	NONAME
	??1Icon@@QAE@XZ                                             	@254	NONAME
	??1InfoBox@@QAE@XZ                                          	@255	NONAME
	??1LineObject@@UAE@XZ                                       	@256	NONAME
	??1ListBox@@QAE@XZ                                          	@257	NONAME
	??1Menu@@QAE@XZ                                             	@258	NONAME
	??1MessBox@@QAE@XZ                                          	@259	NONAME
	??1ModeLessDialog@@UAE@XZ                                   	@260	NONAME
	??1MultiLineEdit@@QAE@XZ                                    	@261	NONAME
	??1MultiSelListBox@@QAE@XZ                                  	@262	NONAME
	??1MultiSelTabularListBox@@QAE@XZ                           	@263	NONAME
	??1Pen@@QAE@XZ                                              	@264	NONAME
	??1Pointer@@QAE@XZ                                          	@265	NONAME
	??1Printer@@UAE@XZ                                          	@266	NONAME
	??1PrintingDevice@@QAE@XZ                                   	@267	NONAME
	??1PushButton@@QAE@XZ                                       	@268	NONAME
	??1RadioButton@@QAE@XZ                                      	@269	NONAME
	??1RectangleObject@@UAE@XZ                                  	@270	NONAME
	??1ResString@@QAE@XZ                                        	@271	NONAME
	??1ResourceFile@@QAE@XZ                                     	@272	NONAME
	??1ScrollBar@@QAE@XZ                                        	@273	NONAME
	??1ShapeObject@@UAE@XZ                                      	@274	NONAME
	??1ShellWindow@@UAE@XZ                                      	@275	NONAME
	??1SingleLineEdit@@QAE@XZ                                   	@276	NONAME
	??1SysMenu@@QAE@XZ                                          	@277	NONAME
	??1TabularListBox@@QAE@XZ                                   	@278	NONAME
	??1TextControl@@QAE@XZ                                      	@279	NONAME
	??1TextObject@@UAE@XZ                                       	@280	NONAME
	??1TopAppWindow@@UAE@XZ                                     	@281	NONAME
	??1VertScrollBar@@QAE@XZ                                    	@282	NONAME
	??1WarningBox@@QAE@XZ                                       	@283	NONAME
	??1Window@@UAE@XZ                                           	@284	NONAME
	??1WndHorzScrollBar@@QAE@XZ                                 	@285	NONAME
	??1WndVertScrollBar@@QAE@XZ                                 	@286	NONAME
	??4Accel@@QAEAAV0@ABV0@@Z                                   	@287	NONAME
	??4AppWindow@@QAEAAV0@ABV0@@Z                               	@288	NONAME
	??4BandingPrinter@@QAEAAV0@ABV0@@Z                          	@289	NONAME
	??4BaseListBox@@QAEAAV0@ABV0@@Z                             	@290	NONAME
	??4Bitmap@@QAEAAV0@ABV0@@Z                                  	@291	NONAME
	??4BitmapObject@@QAEAAV0@ABV0@@Z                            	@292	NONAME
	??4Brush@@QAEAAV0@ABV0@@Z                                   	@293	NONAME
	??4Button@@QAEAAV0@ABV0@@Z                                  	@294	NONAME
	??4CAnimateCtrl@@QAEAAV0@ABV0@@Z                            	@859	NONAME
	??4CClipboard@@QAEAAV0@ABV0@@Z                              	@295	NONAME
	??4CDCExposeEvt@@QAEAAV0@ABV0@@Z                            	@296	NONAME
	??4CDCWindow@@QAEAAV0@ABV0@@Z                               	@297	NONAME
	??4CImageList@@QAEAAV0@ABV0@@Z                              	@298	NONAME
	??4CImageListObject@@QAEAAV0@ABV0@@Z                        	@299	NONAME
	??4CListViewCtrl@@QAEAAV0@ABV0@@Z                           	@300	NONAME
	??4COpenDialog@@QAEAAV0@ABV0@@Z                             	@301	NONAME
	??4CPolyPolygonObject@@QAEAAV0@ABV0@@Z                      	@1245	NONAME
	??4CPolygonObject@@QAEAAV0@ABV0@@Z                          	@1315	NONAME
	??4CProgressCtrl@@QAEAAV0@ABV0@@Z                           	@302	NONAME
	??4CPropertyPage@@QAEAAV0@ABV0@@Z                           	@303	NONAME
	??4CPropertySheet@@QAEAAV0@ABV0@@Z                          	@304	NONAME
	??4CSaveAsDialog@@QAEAAV0@ABV0@@Z                           	@305	NONAME
	??4CSpinButtonCtrl@@QAEAAV0@ABV0@@Z                         	@306	NONAME
	??4CStatusBarCtrl@@QAEAAV0@ABV0@@Z                          	@307	NONAME
	??4CStdColorDlg@@QAEAAV0@ABV0@@Z                            	@308	NONAME
	??4CStdDialog@@QAEAAV0@ABV0@@Z                              	@309	NONAME
	??4CStdFileDlg@@QAEAAV0@ABV0@@Z                             	@310	NONAME
	??4CToolBarCtrl@@QAEAAV0@ABV0@@Z                            	@311	NONAME
	??4CToolTipCtrl@@QAEAAV0@ABV0@@Z                            	@312	NONAME
	??4CTreeViewCtrl@@QAEAAV0@ABV0@@Z                           	@313	NONAME
	??4CVLink@@QAEAAV0@ABV0@@Z                                  	@314	NONAME
	??4CVLinked_List@@QAEAAV0@ABV0@@Z                           	@315	NONAME
	??4CVTable@@QAEAAV0@ABV0@@Z                                 	@316	NONAME
	??4CheckBox@@QAEAAV0@ABV0@@Z                                	@317	NONAME
	??4ChildAppWindow@@QAEAAV0@ABV0@@Z                          	@318	NONAME
	??4Color@@QAEAAV0@ABV0@@Z                                   	@319	NONAME
	??4ComboBox@@QAEAAV0@ABV0@@Z                                	@320	NONAME
	??4ComboFocusChgEvt@@QAEAAV0@ABV0@@Z                        	@321	NONAME
	??4Control@@QAEAAV0@ABV0@@Z                                 	@322	NONAME
	??4ControlEvt@@QAEAAV0@ABV0@@Z                              	@323	NONAME
	??4ControlWindow@@QAEAAV0@ABV0@@Z                           	@324	NONAME
	??4Cursor@@QAEAAV0@ABV0@@Z                                  	@325	NONAME
	??4CvID@@QAEAAV0@ABV0@@Z                                    	@326	NONAME
	??4DeleteItemEvt@@QAEAAV0@ABV0@@Z                           	@327	NONAME
	??4DialogWindow@@QAEAAV0@ABV0@@Z                            	@328	NONAME
	??4Dimension@@QAEAAV0@ABV0@@Z                               	@329	NONAME
	??4DrawItemEvt@@QAEAAV0@ABV0@@Z                             	@330	NONAME
	??4DrawObject@@IAEAAV0@ABV0@@Z                              	@331	NONAME
	??4Edit@@QAEAAV0@ABV0@@Z                                    	@332	NONAME
	??4EditFocusChgEvt@@QAEAAV0@ABV0@@Z                         	@333	NONAME
	??4EditWindow@@QAEAAV0@ABV0@@Z                              	@334	NONAME
	??4EllipseObject@@QAEAAV0@ABV0@@Z                           	@335	NONAME
	??4ErrorBox@@QAEAAV0@ABV0@@Z                                	@336	NONAME
	??4Event@@QAEAAV0@ABV0@@Z                                   	@337	NONAME
	??4EventContext@@QAEAAV0@ABV0@@Z                            	@338	NONAME
	??4ExposeEvt@@QAEAAV0@ABV0@@Z                               	@339	NONAME
	??4FileListBox@@QAEAAV0@ABV0@@Z                             	@340	NONAME
	??4FixedIcon@@QAEAAV0@ABV0@@Z                               	@341	NONAME
	??4FixedText@@QAEAAV0@ABV0@@Z                               	@342	NONAME
	??4FmtTextObject@@QAEAAV0@ABV0@@Z                           	@343	NONAME
	??4FocusChangeEvt@@QAEAAV0@ABV0@@Z                          	@344	NONAME
	??4Font@@QAEAAV0@ABV0@@Z                                    	@345	NONAME
	??4GaugeBox@@QAEAAV0@ABV0@@Z                                	@346	NONAME
	??4GroupBox@@QAEAAV0@ABV0@@Z                                	@347	NONAME
	??4HelpDisplay@@QAEAAV0@ABV0@@Z                             	@348	NONAME
	??4HelpRequestEvt@@QAEAAV0@ABV0@@Z                          	@349	NONAME
	??4HorizScrollBar@@QAEAAV0@ABV0@@Z                          	@350	NONAME
	??4Icon@@QAEAAV0@ABV0@@Z                                    	@351	NONAME
	??4InfoBox@@QAEAAV0@ABV0@@Z                                 	@352	NONAME
	??4KeyEvt@@QAEAAV0@ABV0@@Z                                  	@353	NONAME
	??4LineObject@@QAEAAV0@ABV0@@Z                              	@354	NONAME
	??4ListBox@@QAEAAV0@ABV0@@Z                                 	@355	NONAME
	??4MeasureItemEvt@@QAEAAV0@ABV0@@Z                          	@356	NONAME
	??4Menu@@QAEAAV0@ABV0@@Z                                    	@357	NONAME
	??4MenuCommandEvt@@QAEAAV0@ABV0@@Z                          	@358	NONAME
	??4MenuInitEvt@@QAEAAV0@ABV0@@Z                             	@359	NONAME
	??4MenuSelectEvt@@QAEAAV0@ABV0@@Z                           	@360	NONAME
	??4MessBox@@QAEAAV0@ABV0@@Z                                 	@361	NONAME
	??4ModeLessDialog@@QAEAAV0@ABV0@@Z                          	@362	NONAME
	??4MouseEvt@@QAEAAV0@ABV0@@Z                                	@363	NONAME
	??4MoveEvt@@QAEAAV0@ABV0@@Z                                 	@364	NONAME
	??4MultiLineEdit@@QAEAAV0@ABV0@@Z                           	@365	NONAME
	??4MultiSelListBox@@QAEAAV0@ABV0@@Z                         	@366	NONAME
	??4MultiSelTabularListBox@@QAEAAV0@ABV0@@Z                  	@367	NONAME
	??4NotifyEvt@@QAEAAV0@ABV0@@Z                               	@368	NONAME
	??4OwnerDrawEvt@@QAEAAV0@ABV0@@Z                            	@369	NONAME
	??4Pair@@QAEAAV0@ABV0@@Z                                    	@370	NONAME
	??4Pen@@QAEAAV0@ABV0@@Z                                     	@371	NONAME
	??4Point@@QAEAAV0@ABV0@@Z                                   	@372	NONAME
	??4Pointer@@QAEAAV0@ABV0@@Z                                 	@373	NONAME
	??4Printer@@QAEAAV0@ABV0@@Z                                 	@374	NONAME
	??4PrinterErrorEvt@@QAEAAV0@ABV0@@Z                         	@375	NONAME
	??4PrinterExposeEvt@@QAEAAV0@ABV0@@Z                        	@376	NONAME
	??4PrintingDevice@@QAEAAV0@ABV0@@Z                          	@377	NONAME
	??4PushButton@@QAEAAV0@ABV0@@Z                              	@378	NONAME
	??4RadioButton@@QAEAAV0@ABV0@@Z                             	@379	NONAME
	??4Range@@QAEAAV0@ABV0@@Z                                   	@380	NONAME
	??4ReSizeEvt@@QAEAAV0@ABV0@@Z                               	@381	NONAME
	??4Rectangle@@QAEAAV0@ABV0@@Z                               	@382	NONAME
	??4RectangleObject@@QAEAAV0@ABV0@@Z                         	@383	NONAME
	??4ResID@@QAEAAV0@ABV0@@Z                                   	@384	NONAME
	??4ResString@@QAEAAV0@ABV0@@Z                               	@385	NONAME
	??4ResourceFile@@QAEAAV0@ABV0@@Z                            	@386	NONAME
	??4ScrollBar@@QAEAAV0@ABV0@@Z                               	@387	NONAME
	??4ScrollEvt@@QAEAAV0@ABV0@@Z                               	@388	NONAME
	??4Selection@@QAEAAV0@ABV0@@Z                               	@389	NONAME
	??4ShapeObject@@QAEAAV0@ABV0@@Z                             	@390	NONAME
	??4ShellWindow@@QAEAAV0@ABV0@@Z                             	@391	NONAME
	??4SingleLineEdit@@QAEAAV0@ABV0@@Z                          	@392	NONAME
	??4SysMenu@@QAEAAV0@ABV0@@Z                                 	@393	NONAME
	??4TabularListBox@@QAEAAV0@ABV0@@Z                          	@394	NONAME
	??4TextControl@@QAEAAV0@ABV0@@Z                             	@395	NONAME
	??4TextObject@@QAEAAV0@ABV0@@Z                              	@396	NONAME
	??4ToolTipEvt@@QAEAAV0@ABV0@@Z                              	@397	NONAME
	??4TopAppWindow@@QAEAAV0@ABV0@@Z                            	@398	NONAME
	??4VertScrollBar@@QAEAAV0@ABV0@@Z                           	@399	NONAME
	??4WarningBox@@QAEAAV0@ABV0@@Z                              	@400	NONAME
	??4Window@@QAEAAV0@ABV0@@Z                                  	@401	NONAME
	??4WndHorzScrollBar@@QAEAAV0@ABV0@@Z                        	@402	NONAME
	??4WndVertScrollBar@@QAEAAV0@ABV0@@Z                        	@403	NONAME
	??8CvID@@QAEHAAV0@@Z                                        	@404	NONAME
	??8CvID@@QAEHI@Z                                            	@405	NONAME
	??8CvID@@QAEHPBD@Z                                          	@406	NONAME
	??BCvID@@QAEIXZ                                             	@407	NONAME
	??BCvID@@QAEPBDXZ                                           	@408	NONAME
	??BResString@@QAEPBDXZ                                      	@409	NONAME
	??_7AppWindow@@6B@                                          	@410	NONAME
	??_7BandingPrinter@@6B@                                     	@411	NONAME
	??_7BitmapObject@@6B@                                       	@412	NONAME
	??_7CDCWindow@@6B@                                          	@413	NONAME
	??_7CImageList@@6B@                                         	@414	NONAME
	??_7CImageListObject@@6B@                                   	@415	NONAME
	??_7COpenDialog@@6B@                                        	@416	NONAME
	??_7CPolyPolygonObject@@6B@                                 	@1387	NONAME
	??_7CPolygonObject@@6B@                                     	@1417	NONAME
	??_7CPropertyPage@@6B@                                      	@417	NONAME
	??_7CPropertySheet@@6B@                                     	@418	NONAME
	??_7CSaveAsDialog@@6B@                                      	@419	NONAME
	??_7CStdColorDlg@@6B@                                       	@420	NONAME
	??_7CStdDialog@@6B@                                         	@421	NONAME
	??_7CStdFileDlg@@6B@                                        	@422	NONAME
	??_7ChildAppWindow@@6B@                                     	@423	NONAME
	??_7ControlWindow@@6B@                                      	@424	NONAME
	??_7DialogWindow@@6B@                                       	@425	NONAME
	??_7DrawObject@@6B@                                         	@426	NONAME
	??_7EditWindow@@6B@                                         	@427	NONAME
	??_7EllipseObject@@6B@                                      	@428	NONAME
	??_7EventContext@@6B@                                       	@429	NONAME
	??_7FmtTextObject@@6B@                                      	@430	NONAME
	??_7LineObject@@6B@                                         	@431	NONAME
	??_7ModeLessDialog@@6B@                                     	@432	NONAME
	??_7Printer@@6B@                                            	@433	NONAME
	??_7RectangleObject@@6B@                                    	@434	NONAME
	??_7ShapeObject@@6B@                                        	@435	NONAME
	??_7ShellWindow@@6B@                                        	@436	NONAME
	??_7TextObject@@6B@                                         	@437	NONAME
	??_7TopAppWindow@@6B@                                       	@438	NONAME
	??_7Window@@6B@                                             	@439	NONAME
	??_EAccel@@QAEPAXI@Z                                        	@440	NONAME
	??_EAppWindow@@UAEPAXI@Z                                    	@441	NONAME
	??_EBandingPrinter@@UAEPAXI@Z                               	@442	NONAME
	??_EBaseListBox@@QAEPAXI@Z                                  	@443	NONAME
	??_EBitmap@@QAEPAXI@Z                                       	@444	NONAME
	??_EBitmapObject@@UAEPAXI@Z                                 	@445	NONAME
	??_EBrush@@QAEPAXI@Z                                        	@446	NONAME
	??_EButton@@QAEPAXI@Z                                       	@447	NONAME
	??_ECAnimateCtrl@@QAEPAXI@Z                                 	@860	NONAME
	??_ECClipboard@@QAEPAXI@Z                                   	@448	NONAME
	??_ECDCWindow@@UAEPAXI@Z                                    	@449	NONAME
	??_ECImageList@@UAEPAXI@Z                                   	@450	NONAME
	??_ECImageListObject@@UAEPAXI@Z                             	@451	NONAME
	??_ECListViewCtrl@@QAEPAXI@Z                                	@452	NONAME
	??_ECOpenDialog@@UAEPAXI@Z                                  	@453	NONAME
	??_ECPolyPolygonObject@@UAEPAXI@Z                           	@1418	NONAME
	??_ECPolygonObject@@UAEPAXI@Z                               	@1440	NONAME
	??_ECProgressCtrl@@QAEPAXI@Z                                	@454	NONAME
	??_ECPropertyPage@@UAEPAXI@Z                                	@455	NONAME
	??_ECPropertySheet@@UAEPAXI@Z                               	@456	NONAME
	??_ECSaveAsDialog@@UAEPAXI@Z                                	@457	NONAME
	??_ECSpinButtonCtrl@@QAEPAXI@Z                              	@458	NONAME
	??_ECStatusBarCtrl@@QAEPAXI@Z                               	@459	NONAME
	??_ECStdColorDlg@@UAEPAXI@Z                                 	@460	NONAME
	??_ECStdDialog@@UAEPAXI@Z                                   	@461	NONAME
	??_ECStdFileDlg@@UAEPAXI@Z                                  	@462	NONAME
	??_ECToolBarCtrl@@QAEPAXI@Z                                 	@463	NONAME
	??_ECToolTipCtrl@@QAEPAXI@Z                                 	@464	NONAME
	??_ECTreeViewCtrl@@QAEPAXI@Z                                	@465	NONAME
	??_ECVLink@@QAEPAXI@Z                                       	@466	NONAME
	??_ECheckBox@@QAEPAXI@Z                                     	@467	NONAME
	??_EChildAppWindow@@UAEPAXI@Z                               	@468	NONAME
	??_EComboBox@@QAEPAXI@Z                                     	@469	NONAME
	??_EControl@@QAEPAXI@Z                                      	@470	NONAME
	??_EControlWindow@@UAEPAXI@Z                                	@471	NONAME
	??_ECursor@@QAEPAXI@Z                                       	@472	NONAME
	??_EDialogWindow@@UAEPAXI@Z                                 	@473	NONAME
	??_EDrawObject@@UAEPAXI@Z                                   	@474	NONAME
	??_EEdit@@QAEPAXI@Z                                         	@475	NONAME
	??_EEditWindow@@UAEPAXI@Z                                   	@476	NONAME
	??_EEllipseObject@@UAEPAXI@Z                                	@477	NONAME
	??_EErrorBox@@QAEPAXI@Z                                     	@478	NONAME
	??_EEventContext@@MAEPAXI@Z                                 	@479	NONAME
	??_EFileListBox@@QAEPAXI@Z                                  	@480	NONAME
	??_EFixedIcon@@QAEPAXI@Z                                    	@481	NONAME
	??_EFixedText@@QAEPAXI@Z                                    	@482	NONAME
	??_EFmtTextObject@@UAEPAXI@Z                                	@483	NONAME
	??_EFont@@QAEPAXI@Z                                         	@484	NONAME
	??_EGaugeBox@@QAEPAXI@Z                                     	@485	NONAME
	??_EGroupBox@@QAEPAXI@Z                                     	@486	NONAME
	??_EHelpDisplay@@QAEPAXI@Z                                  	@487	NONAME
	??_EHorizScrollBar@@QAEPAXI@Z                               	@488	NONAME
	??_EIcon@@QAEPAXI@Z                                         	@489	NONAME
	??_EInfoBox@@QAEPAXI@Z                                      	@490	NONAME
	??_ELineObject@@UAEPAXI@Z                                   	@491	NONAME
	??_EListBox@@QAEPAXI@Z                                      	@492	NONAME
	??_EMenu@@QAEPAXI@Z                                         	@493	NONAME
	??_EMessBox@@QAEPAXI@Z                                      	@494	NONAME
	??_EModeLessDialog@@UAEPAXI@Z                               	@495	NONAME
	??_EMultiLineEdit@@QAEPAXI@Z                                	@496	NONAME
	??_EMultiSelListBox@@QAEPAXI@Z                              	@497	NONAME
	??_EMultiSelTabularListBox@@QAEPAXI@Z                       	@498	NONAME
	??_EPen@@QAEPAXI@Z                                          	@499	NONAME
	??_EPointer@@QAEPAXI@Z                                      	@500	NONAME
	??_EPrinter@@UAEPAXI@Z                                      	@501	NONAME
	??_EPrintingDevice@@QAEPAXI@Z                               	@502	NONAME
	??_EPushButton@@QAEPAXI@Z                                   	@503	NONAME
	??_ERadioButton@@QAEPAXI@Z                                  	@504	NONAME
	??_ERectangleObject@@UAEPAXI@Z                              	@505	NONAME
	??_EResString@@QAEPAXI@Z                                    	@506	NONAME
	??_EResourceFile@@QAEPAXI@Z                                 	@507	NONAME
	??_EScrollBar@@QAEPAXI@Z                                    	@508	NONAME
	??_EShapeObject@@UAEPAXI@Z                                  	@509	NONAME
	??_EShellWindow@@UAEPAXI@Z                                  	@510	NONAME
	??_ESingleLineEdit@@QAEPAXI@Z                               	@511	NONAME
	??_ESysMenu@@QAEPAXI@Z                                      	@512	NONAME
	??_ETabularListBox@@QAEPAXI@Z                               	@513	NONAME
	??_ETextControl@@QAEPAXI@Z                                  	@514	NONAME
	??_ETextObject@@UAEPAXI@Z                                   	@515	NONAME
	??_ETopAppWindow@@UAEPAXI@Z                                 	@516	NONAME
	??_EVertScrollBar@@QAEPAXI@Z                                	@517	NONAME
	??_EWarningBox@@QAEPAXI@Z                                   	@518	NONAME
	??_EWindow@@UAEPAXI@Z                                       	@519	NONAME
	??_EWndHorzScrollBar@@QAEPAXI@Z                             	@520	NONAME
	??_EWndVertScrollBar@@QAEPAXI@Z                             	@521	NONAME
	??_FBandingPrinter@@QAEXXZ                                  	@522	NONAME
	??_FBrush@@QAEXXZ                                           	@523	NONAME
	??_FIcon@@QAEXXZ                                            	@524	NONAME
	??_FPointer@@QAEXXZ                                         	@525	NONAME
	??_FPrinter@@QAEXXZ                                         	@526	NONAME
	??_FPrintingDevice@@QAEXXZ                                  	@527	NONAME
	??_FTopAppWindow@@QAEXXZ                                    	@528	NONAME
	??_GAccel@@QAEPAXI@Z                                        	@529	NONAME
	??_GAppWindow@@UAEPAXI@Z                                    	@530	NONAME
	??_GBandingPrinter@@UAEPAXI@Z                               	@531	NONAME
	??_GBaseListBox@@QAEPAXI@Z                                  	@532	NONAME
	??_GBitmap@@QAEPAXI@Z                                       	@533	NONAME
	??_GBitmapObject@@UAEPAXI@Z                                 	@534	NONAME
	??_GBrush@@QAEPAXI@Z                                        	@535	NONAME
	??_GButton@@QAEPAXI@Z                                       	@536	NONAME
	??_GCAnimateCtrl@@QAEPAXI@Z                                 	@1010	NONAME
	??_GCClipboard@@QAEPAXI@Z                                   	@537	NONAME
	??_GCDCWindow@@UAEPAXI@Z                                    	@538	NONAME
	??_GCImageList@@UAEPAXI@Z                                   	@539	NONAME
	??_GCImageListObject@@UAEPAXI@Z                             	@540	NONAME
	??_GCListViewCtrl@@QAEPAXI@Z                                	@541	NONAME
	??_GCOpenDialog@@UAEPAXI@Z                                  	@542	NONAME
	??_GCPolyPolygonObject@@UAEPAXI@Z                           	@1441	NONAME
	??_GCPolygonObject@@UAEPAXI@Z                               	@1442	NONAME
	??_GCProgressCtrl@@QAEPAXI@Z                                	@543	NONAME
	??_GCPropertyPage@@UAEPAXI@Z                                	@544	NONAME
	??_GCPropertySheet@@UAEPAXI@Z                               	@545	NONAME
	??_GCSaveAsDialog@@UAEPAXI@Z                                	@546	NONAME
	??_GCSpinButtonCtrl@@QAEPAXI@Z                              	@547	NONAME
	??_GCStatusBarCtrl@@QAEPAXI@Z                               	@548	NONAME
	??_GCStdColorDlg@@UAEPAXI@Z                                 	@549	NONAME
	??_GCStdDialog@@UAEPAXI@Z                                   	@550	NONAME
	??_GCStdFileDlg@@UAEPAXI@Z                                  	@551	NONAME
	??_GCToolBarCtrl@@QAEPAXI@Z                                 	@552	NONAME
	??_GCToolTipCtrl@@QAEPAXI@Z                                 	@553	NONAME
	??_GCTreeViewCtrl@@QAEPAXI@Z                                	@554	NONAME
	??_GCVLink@@QAEPAXI@Z                                       	@555	NONAME
	??_GCheckBox@@QAEPAXI@Z                                     	@556	NONAME
	??_GChildAppWindow@@UAEPAXI@Z                               	@557	NONAME
	??_GComboBox@@QAEPAXI@Z                                     	@558	NONAME
	??_GControl@@QAEPAXI@Z                                      	@559	NONAME
	??_GControlWindow@@UAEPAXI@Z                                	@560	NONAME
	??_GCursor@@QAEPAXI@Z                                       	@561	NONAME
	??_GDialogWindow@@UAEPAXI@Z                                 	@562	NONAME
	??_GDrawObject@@UAEPAXI@Z                                   	@563	NONAME
	??_GEdit@@QAEPAXI@Z                                         	@564	NONAME
	??_GEditWindow@@UAEPAXI@Z                                   	@565	NONAME
	??_GEllipseObject@@UAEPAXI@Z                                	@566	NONAME
	??_GErrorBox@@QAEPAXI@Z                                     	@567	NONAME
	??_GEventContext@@MAEPAXI@Z                                 	@568	NONAME
	??_GFileListBox@@QAEPAXI@Z                                  	@569	NONAME
	??_GFixedIcon@@QAEPAXI@Z                                    	@570	NONAME
	??_GFixedText@@QAEPAXI@Z                                    	@571	NONAME
	??_GFmtTextObject@@UAEPAXI@Z                                	@572	NONAME
	??_GFont@@QAEPAXI@Z                                         	@573	NONAME
	??_GGaugeBox@@QAEPAXI@Z                                     	@574	NONAME
	??_GGroupBox@@QAEPAXI@Z                                     	@575	NONAME
	??_GHelpDisplay@@QAEPAXI@Z                                  	@576	NONAME
	??_GHorizScrollBar@@QAEPAXI@Z                               	@577	NONAME
	??_GIcon@@QAEPAXI@Z                                         	@578	NONAME
	??_GInfoBox@@QAEPAXI@Z                                      	@579	NONAME
	??_GLineObject@@UAEPAXI@Z                                   	@580	NONAME
	??_GListBox@@QAEPAXI@Z                                      	@581	NONAME
	??_GMenu@@QAEPAXI@Z                                         	@582	NONAME
	??_GMessBox@@QAEPAXI@Z                                      	@583	NONAME
	??_GModeLessDialog@@UAEPAXI@Z                               	@584	NONAME
	??_GMultiLineEdit@@QAEPAXI@Z                                	@585	NONAME
	??_GMultiSelListBox@@QAEPAXI@Z                              	@586	NONAME
	??_GMultiSelTabularListBox@@QAEPAXI@Z                       	@587	NONAME
	??_GPen@@QAEPAXI@Z                                          	@588	NONAME
	??_GPointer@@QAEPAXI@Z                                      	@589	NONAME
	??_GPrinter@@UAEPAXI@Z                                      	@590	NONAME
	??_GPrintingDevice@@QAEPAXI@Z                               	@591	NONAME
	??_GPushButton@@QAEPAXI@Z                                   	@592	NONAME
	??_GRadioButton@@QAEPAXI@Z                                  	@593	NONAME
	??_GRectangleObject@@UAEPAXI@Z                              	@594	NONAME
	??_GResString@@QAEPAXI@Z                                    	@595	NONAME
	??_GResourceFile@@QAEPAXI@Z                                 	@596	NONAME
	??_GScrollBar@@QAEPAXI@Z                                    	@597	NONAME
	??_GShapeObject@@UAEPAXI@Z                                  	@598	NONAME
	??_GShellWindow@@UAEPAXI@Z                                  	@599	NONAME
	??_GSingleLineEdit@@QAEPAXI@Z                               	@600	NONAME
	??_GSysMenu@@QAEPAXI@Z                                      	@601	NONAME
	??_GTabularListBox@@QAEPAXI@Z                               	@602	NONAME
	??_GTextControl@@QAEPAXI@Z                                  	@603	NONAME
	??_GTextObject@@UAEPAXI@Z                                   	@604	NONAME
	??_GTopAppWindow@@UAEPAXI@Z                                 	@605	NONAME
	??_GVertScrollBar@@QAEPAXI@Z                                	@606	NONAME
	??_GWarningBox@@QAEPAXI@Z                                   	@607	NONAME
	??_GWindow@@UAEPAXI@Z                                       	@608	NONAME
	??_GWndHorzScrollBar@@QAEPAXI@Z                             	@609	NONAME
	??_GWndVertScrollBar@@QAEPAXI@Z                             	@610	NONAME
	?ASCIIChar@KeyEvt@@QAEDXZ                                   	@611	NONAME
	?Abort@Printer@@QAEXXZ                                      	@612	NONAME
	?Activate@CToolTipCtrl@@QAEXH@Z                             	@613	NONAME
	?Activate@Window@@MAEXVEvent@@@Z                            	@614	NONAME
	?Add@CImageList@@QAEHPAVBitmap@@0@Z                         	@615	NONAME
	?Add@CImageList@@QAEHPAVBitmap@@K@Z                         	@616	NONAME
	?Add@CImageList@@QAEHPAVIcon@@@Z                            	@617	NONAME
	?AddBitmap@CToolBarCtrl@@QAEHHPAVBitmap@@@Z                 	@618	NONAME
	?AddBitmap@CToolBarCtrl@@QAEHHVResID@@@Z                    	@619	NONAME
	?AddButtons@CToolBarCtrl@@QAEHHPAU_TBBUTTON@@@Z             	@620	NONAME
	?AddFlags@CStdFileDlg@@QAEXJ@Z                              	@621	NONAME
	?AddPage@CPropertySheet@@QAEIPAU_PSP@@@Z                    	@622	NONAME
	?AddPage@CPropertySheet@@QAEIPAVCPropertyPage@@@Z           	@623	NONAME
	?AddRow@MultiSelTabularListBox@@QAAHHZZ                     	@624	NONAME
	?AddRow@TabularListBox@@QAAHHZZ                             	@625	NONAME
	?AddString@BaseListBox@@QAEHPBDH@Z                          	@626	NONAME
	?AddString@CToolBarCtrl@@QAEHVResID@@@Z                     	@627	NONAME
	?AddStrings@CToolBarCtrl@@QAEHPBD@Z                         	@628	NONAME
	?AddTool@CToolTipCtrl@@QAEHPAVWindow@@PBDPBUtagRECT@@I@Z    	@629	NONAME
	?AddTool@CToolTipCtrl@@QAEHPAVWindow@@VResID@@PBUtagRECT@@I@Z	@630	NONAME
	?Addr@ResString@@QAEPBDXZ                                   	@631	NONAME
	?AppendItem@Menu@@QAEHIPAVBitmap@@@Z                        	@632	NONAME
	?AppendItem@Menu@@QAEHIPBD@Z                                	@633	NONAME
	?AppendItem@Menu@@QAEHPAV1@PBD@Z                            	@634	NONAME
	?AppendSeparator@Menu@@QAEHXZ                               	@635	NONAME
	?ApproximateViewRect@CListViewCtrl@@QAEKHHH@Z               	@1485	NONAME
	?Arrange@CListViewCtrl@@QAEHI@Z                             	@636	NONAME
	?Arrange@ShellWindow@@QAEXW4ArrangeStyle@1@@Z               	@637	NONAME
	?Attach@CImageList@@QAEHPAU_IMAGELIST@@@Z                   	@638	NONAME
	?AttachIdleProc@App@@QAEP6AHJ@ZP6AHJ@Z@Z                    	@1390	NONAME
	?AttachPreTranslateProc@App@@QAEP6AHPAUtagMSG@@@ZP6AH0@Z@Z  	@1388	NONAME
	?AutoSize@CToolBarCtrl@@QAEXXZ                              	@639	NONAME
	?BeginDrag@CImageList@@QAEHHVPoint@@@Z                      	@640	NONAME
	?Blue@Color@@QAEAAEXZ                                       	@641	NONAME
	?Bottom@Rectangle@@QAEAAJXZ                                 	@642	NONAME
	?BoundingBox@BitmapObject@@UAE?AVRectangle@@XZ              	@643	NONAME
	?BoundingBox@DrawObject@@UAE?AVRectangle@@XZ                	@644	NONAME
	?BoundingBox@LineObject@@UAE?AVRectangle@@XZ                	@645	NONAME
	?BoundingBox@ShapeObject@@UAE?AVRectangle@@XZ               	@646	NONAME
	?BoundingBox@TextObject@@UAE?AVRectangle@@XZ                	@647	NONAME
	?ButtonClick@Window@@MAEXVControlEvt@@@Z                    	@648	NONAME
	?ButtonDblClk@Window@@MAEXVControlEvt@@@Z                   	@649	NONAME
	?ButtonID@MouseEvt@@QAE?AW4Buttons@@XZ                      	@650	NONAME
	?CallAppExec@@YAHW4ExecType@@@Z                             	@651	NONAME
	?CanUndo@Edit@@QAEHXZ                                       	@652	NONAME
	?CancelStrobe@Window@@QAEHPAVTimer@@@Z                      	@653	NONAME
	?CancelToClose@CPropertyPage@@QAEXXZ                        	@654	NONAME
	?CanvasErase@Window@@QAEXAAVRectangle@@@Z                   	@655	NONAME
	?CanvasErase@Window@@QAEXXZ                                 	@656	NONAME
	?CanvasRect@Window@@QAE?AVRectangle@@XZ                     	@657	NONAME
	?CentreWindow@@YAXPAUHWND__@@0@Z                            	@658	NONAME
	?CentreWindow@@YAXPAVWindow@@0@Z                            	@659	NONAME
	?ChangeAccel@Window@@QAEPAVAccel@@PAV2@@Z                   	@660	NONAME
	?ChangeBackground@Control@@QAEPAVBrush@@PAV2@@Z             	@661	NONAME
	?ChangeBackground@Window@@QAEPAVBrush@@PAV2@@Z              	@662	NONAME
	?ChangeBlinkTime@Cursor@@QAEXI@Z                            	@663	NONAME
	?ChangeBrush@ShapeObject@@QAEPAVBrush@@PAV2@@Z              	@664	NONAME
	?ChangeBrush@Window@@QAEPAVBrush@@PAV2@@Z                   	@665	NONAME
	?ChangeCurrentIndex@ListBox@@QAEHH@Z                        	@666	NONAME
	?ChangeEditSelection@ComboBox@@QAEXVSelection@@@Z           	@1419	NONAME
	?ChangeFont@DialogWindow@@QAEPAVFont@@PAV2@H@Z              	@667	NONAME
	?ChangeFont@TextControl@@QAEPAVFont@@PAV2@H@Z               	@668	NONAME
	?ChangeFont@Window@@QAEPAVFont@@PAV2@@Z                     	@669	NONAME
	?ChangeMenuA@Window@@QAEPAVMenu@@PAV2@@Z                    	@670	NONAME
	?ChangePen@LineObject@@QAEPAVPen@@PAV2@@Z                   	@671	NONAME
	?ChangePen@ShapeObject@@QAEPAVPen@@PAV2@@Z                  	@672	NONAME
	?ChangePen@Window@@QAEPAVPen@@PAV2@@Z                       	@673	NONAME
	?ChangePointer@Window@@QAEPAVPointer@@PAV2@@Z               	@674	NONAME
	?ChangePos@Cursor@@QAEXVPoint@@@Z                           	@675	NONAME
	?ChangePos@Pointer@@QAEXVPoint@@@Z                          	@676	NONAME
	?ChangePosition@Control@@QAE?AVPoint@@V2@@Z                 	@677	NONAME
	?ChangePosition@ControlWindow@@QAE?AVPoint@@V2@@Z           	@678	NONAME
	?ChangePosition@DrawObject@@UAE?AVPoint@@V2@@Z              	@679	NONAME
	?ChangePosition@LineObject@@UAE?AVPoint@@V2@@Z              	@680	NONAME
	?ChangePosition@Window@@QAE?AVPoint@@V2@@Z                  	@681	NONAME
	?ChangeRop@DrawObject@@UAE?AW4RopType@@W42@@Z               	@682	NONAME
	?ChangeSelected@MultiSelListBox@@QAEHHH@Z                   	@683	NONAME
	?ChangeSelected@MultiSelListBox@@QAEHVRange@@H@Z            	@684	NONAME
	?ChangeSelection@Edit@@QAEXVSelection@@@Z                   	@685	NONAME
	?ChangeSelection@EditWindow@@QAEXVSelection@@@Z             	@686	NONAME
	?ChangeSize@BitmapObject@@UAE?AVDimension@@V2@@Z            	@687	NONAME
	?ChangeSize@Control@@QAE?AVDimension@@V2@@Z                 	@688	NONAME
	?ChangeSize@ControlWindow@@QAE?AVDimension@@V2@@Z           	@689	NONAME
	?ChangeSize@DrawObject@@UAE?AVDimension@@V2@@Z              	@690	NONAME
	?ChangeSize@LineObject@@UAE?AVDimension@@V2@@Z              	@691	NONAME
	?ChangeSize@ShapeObject@@UAE?AVDimension@@V2@@Z             	@692	NONAME
	?ChangeSize@Window@@QAE?AVDimension@@V2@@Z                  	@693	NONAME
	?ChangeTextColor@TextControl@@QAE?AVColor@@V2@@Z            	@694	NONAME
	?CheckButton@CToolBarCtrl@@QAEHHH@Z                         	@695	NONAME
	?CheckItem@Menu@@QAEHI@Z                                    	@696	NONAME
	?Clear@BaseListBox@@QAEXXZ                                  	@697	NONAME
	?Clear@CClipboard@@QAEXXZ                                   	@698	NONAME
	?ClearSelected@MultiSelListBox@@QAEHXZ                      	@699	NONAME
	?Close@CAnimateCtrl@@QAEHXZ                                 	@1027	NONAME
	?Close@Window@@MAEXVEvent@@@Z                               	@700	NONAME
	?CommandToIndex@CToolBarCtrl@@QAEII@Z                       	@701	NONAME
	?CompareItem@Window@@MAEHVOwnerDrawEvt@@PAX1@Z              	@702	NONAME
	?Confine@Pointer@@QAEXVRectangle@@@Z                        	@703	NONAME
	?CreateDragImage@CListViewCtrl@@QAEPAVCImageList@@HPAUtagPOINT@@@Z	@704	NONAME
	?CreateDragImage@CTreeViewCtrl@@QAEPAVCImageList@@PAU_TREEITEM@@@Z	@705	NONAME
	?CreateList@CImageList@@QAEHAAV1@H0HHH@Z                    	@706	NONAME
	?CreateList@CImageList@@QAEHHHHHH@Z                         	@707	NONAME
	?CreateList@CImageList@@QAEHVResID@@HHK@Z                   	@708	NONAME
	?CreatePage@CPropertyPage@@IAEPAU_PSP@@XZ                   	@709	NONAME
	?Customize@CToolBarCtrl@@QAEXXZ                             	@710	NONAME
	?DeActivate@Window@@MAEXVEvent@@@Z                          	@711	NONAME
	?Default@EventContext@@MAEXVEvent@@@Z                       	@712	NONAME
	?DelString@BaseListBox@@QAEHH@Z                             	@713	NONAME
	?DelTool@CToolTipCtrl@@QAEXPAVWindow@@I@Z                   	@714	NONAME
	?Delete@CVLinked_List@@QAEXPAX0@Z                           	@715	NONAME
	?Delete@CVLinked_List@@QAEXPAX@Z                            	@716	NONAME
	?Delete@CVLinked_List@@QAEXXZ                               	@717	NONAME
	?DeleteAllItems@CListViewCtrl@@QAEHXZ                       	@718	NONAME
	?DeleteAllItems@CTreeViewCtrl@@QAEHXZ                       	@719	NONAME
	?DeleteButton@CToolBarCtrl@@QAEHH@Z                         	@720	NONAME
	?DeleteColumn@CListViewCtrl@@QAEHH@Z                        	@721	NONAME
	?DeleteEditSelected@ComboBox@@QAEXH@Z                       	@1420	NONAME
	?DeleteImageList@CImageList@@QAEHXZ                         	@722	NONAME
	?DeleteItem@CListViewCtrl@@QAEHH@Z                          	@723	NONAME
	?DeleteItem@CTreeViewCtrl@@QAEHPAU_TREEITEM@@@Z             	@724	NONAME
	?DeleteItem@Menu@@QAEHI@Z                                   	@725	NONAME
	?DeleteItem@Menu@@QAEHPAV1@@Z                               	@726	NONAME
	?DeleteItem@Window@@MAEHVDeleteItemEvt@@@Z                  	@727	NONAME
	?DeleteSelected@Edit@@QAEXH@Z                               	@728	NONAME
	?DeleteSelected@EditWindow@@QAEXH@Z                         	@729	NONAME
	?Detach@CImageList@@QAEPAU_IMAGELIST@@XZ                    	@730	NONAME
	?Detach@Window@@QAEPAUHWND__@@XZ                            	@731	NONAME
	?DetachIdleProc@App@@QAEP6AHJ@ZXZ                           	@1391	NONAME
	?DetachPreTranslateProc@App@@QAEP6AHPAUtagMSG@@@ZXZ         	@1389	NONAME
	?DeviceMode@PrintingDevice@@QAEPBU_devicemodeA@@XZ          	@732	NONAME
	?DeviceName@PrintingDevice@@QAEPBDXZ                        	@733	NONAME
	?Disable@Control@@QAEXXZ                                    	@734	NONAME
	?Disable@ControlWindow@@QAEXXZ                              	@735	NONAME
	?Disable@Window@@QAEXXZ                                     	@736	NONAME
	?DisableItem@Menu@@QAEHI@Z                                  	@737	NONAME
	?Dispatch@EventContext@@MAEJVEvent@@@Z                      	@738	NONAME
	?DragEnter@CImageList@@SAHPAVWindow@@VPoint@@@Z             	@739	NONAME
	?DragLeave@CImageList@@SAHPAVWindow@@@Z                     	@740	NONAME
	?DragMove@CImageList@@SAHVPoint@@@Z                         	@741	NONAME
	?DragShowNolock@CImageList@@SAHH@Z                          	@742	NONAME
	?Draw@BitmapObject@@MAEXXZ                                  	@743	NONAME
	?Draw@CImageList@@QAEHPAUHDC__@@HVPoint@@I@Z                	@1486	NONAME
	?Draw@CImageListObject@@MAEXXZ                              	@744	NONAME
	?Draw@CPolyPolygonObject@@MAEXXZ                            	@1444	NONAME
	?Draw@CPolygonObject@@MAEXXZ                                	@1448	NONAME
	?Draw@DrawObject@@MAEXXZ                                    	@745	NONAME
	?Draw@EllipseObject@@MAEXXZ                                 	@746	NONAME
	?Draw@FmtTextObject@@UAEXXZ                                 	@747	NONAME
	?Draw@LineObject@@MAEXXZ                                    	@748	NONAME
	?Draw@RectangleObject@@MAEXXZ                               	@749	NONAME
	?Draw@TextObject@@MAEXXZ                                    	@750	NONAME
	?Draw@Window@@QAEXPAVDrawObject@@@Z                         	@751	NONAME
	?DrawCallUp@Window@@UAEHPAVDrawObject@@H@Z                  	@1401	NONAME
	?DrawEntireItem@Window@@MAEHVDrawItemEvt@@@Z                	@752	NONAME
	?DrawEx@DrawObject@@MAEXK@Z                                 	@753	NONAME
	?DrawEx@Window@@QAEXPAVDrawObject@@K@Z                      	@754	NONAME
	?DrawItemFocus@Window@@MAEHVDrawItemEvt@@@Z                 	@755	NONAME
	?DrawItemSelect@Window@@MAEHVDrawItemEvt@@@Z                	@756	NONAME
	?DriverName@PrintingDevice@@QAEPBDXZ                        	@757	NONAME
	?EditChange@Window@@MAEXVControlEvt@@@Z                     	@758	NONAME
	?EditFocusChg@Window@@MAEXVEditFocusChgEvt@@@Z              	@759	NONAME
	?EditLabel@CListViewCtrl@@QAEPAVSingleLineEdit@@H@Z         	@760	NONAME
	?EditLabel@CTreeViewCtrl@@QAEPAVSingleLineEdit@@PAU_TREEITEM@@@Z	@761	NONAME
	?EditScroll@Window@@MAEXVControlEvt@@@Z                     	@762	NONAME
	?Enable@Control@@QAEXXZ                                     	@763	NONAME
	?Enable@ControlWindow@@QAEXXZ                               	@764	NONAME
	?Enable@Window@@QAEXXZ                                      	@765	NONAME
	?EnableBorder@AppWindow@@QAEXW4BorderType@1@@Z              	@766	NONAME
	?EnableButton@CToolBarCtrl@@QAEHHH@Z                        	@767	NONAME
	?EnableHScroll@Window@@QAEPAVWndHorzScrollBar@@H@Z          	@768	NONAME
	?EnableHelp@Window@@QAEXHPAVHelpDisplay@@@Z                 	@769	NONAME
	?EnableItem@Menu@@QAEHI@Z                                   	@770	NONAME
	?EnableMaxBox@AppWindow@@QAEXH@Z                            	@771	NONAME
	?EnableMinBox@AppWindow@@QAEXH@Z                            	@772	NONAME
	?EnableSysMenu@AppWindow@@QAEPAVSysMenu@@H@Z                	@773	NONAME
	?EnableVScroll@Window@@QAEPAVWndVertScrollBar@@H@Z          	@774	NONAME
	?End@Selection@@QAEAAJXZ                                    	@775	NONAME
	?EndDialog@CPropertySheet@@QAEXH@Z                          	@776	NONAME
	?EndDlg@DialogWindow@@IAEXH@Z                               	@777	NONAME
	?EndDrag@CImageList@@SAXXZ                                  	@778	NONAME
	?EnsureVisible@CListViewCtrl@@QAEHHH@Z                      	@779	NONAME
	?EnsureVisible@CTreeViewCtrl@@QAEHPAU_TREEITEM@@@Z          	@780	NONAME
	?Expand@CTreeViewCtrl@@QAEHPAU_TREEITEM@@I@Z                	@781	NONAME
	?Expose@ControlWindow@@MAEXVExposeEvt@@@Z                   	@782	NONAME
	?Expose@Window@@MAEXVExposeEvt@@@Z                          	@783	NONAME
	?ExtractIconA@CImageList@@QAEPAUHICON__@@H@Z                	@784	NONAME
	?FInit@Control@@QAEHXZ                                      	@785	NONAME
	?FInit@ControlWindow@@QAEHXZ                                	@1407	NONAME
	?FillInToolInfo@CToolTipCtrl@@QAEXAAUtagTOOLINFOA@@PAVWindow@@I@Z	@786	NONAME
	?Find@CVLinked_List@@QAEPAXPAX@Z                            	@787	NONAME
	?FindItem@CListViewCtrl@@QAEHPAU_LV_FINDINFOA@@H@Z          	@1487	NONAME
	?FindItemDeep@CVTable@@QAEHPBD@Z                            	@789	NONAME
	?FindItemShallow@CVTable@@QAEHPBD@Z                         	@790	NONAME
	?FindString@BaseListBox@@QAEHPBDH@Z                         	@791	NONAME
	?FindString@MultiSelListBox@@QAEHPBDHH@Z                    	@1453	NONAME
	?First@CVLinked_List@@QAEPAVCVLink@@XZ                      	@792	NONAME
	?Flags@CStdFileDlg@@QAEJXZ                                  	@793	NONAME
	?FocusChange@Window@@MAEXVFocusChangeEvt@@@Z                	@794	NONAME
	?ForwardEvent@Control@@QAEJVEvent@@@Z                       	@1488	NONAME
	?ForwardEvent@Window@@QAEJVEvent@@@Z                        	@1489	NONAME
	?GaugeBoxWndProc@@YGJPAUHWND__@@IIJ@Z                       	@797	NONAME
	?Get3DWidth@GaugeBox@@QAEFXZ                                	@798	NONAME
	?GetAccel@CSpinButtonCtrl@@QAEIHPAU_UDACCEL@@@Z             	@799	NONAME
	?GetAccel@Window@@QAEPAVAccel@@XZ                           	@800	NONAME
	?GetBackground@Window@@QAEPAVBrush@@XZ                      	@801	NONAME
	?GetBase@CSpinButtonCtrl@@QAEIXZ                            	@802	NONAME
	?GetBezelFace@GaugeBox@@QAEFXZ                              	@803	NONAME
	?GetBitmapFlags@CToolBarCtrl@@QAEIXZ                        	@804	NONAME
	?GetBits@Bitmap@@QAEKKPAG@Z                                 	@805	NONAME
	?GetBkColor@CImageList@@QAEKXZ                              	@806	NONAME
	?GetBkColor@CListViewCtrl@@QAEKXZ                           	@807	NONAME
	?GetBkColor@GaugeBox@@QAE?AVColor@@XZ                       	@808	NONAME
	?GetBlinkTime@Cursor@@QAEIXZ                                	@809	NONAME
	?GetBlock@ScrollBar@@QAEIXZ                                 	@810	NONAME
	?GetBorders@CStatusBarCtrl@@QAEHAAH00@Z                     	@811	NONAME
	?GetBorders@CStatusBarCtrl@@QAEHPAH@Z                       	@812	NONAME
	?GetBrush@Window@@QAEPAVBrush@@XZ                           	@813	NONAME
	?GetBuddy@CSpinButtonCtrl@@QAEPAVControl@@XZ                	@814	NONAME
	?GetButton@CToolBarCtrl@@QAEHHPAU_TBBUTTON@@@Z              	@815	NONAME
	?GetButtonCount@CToolBarCtrl@@QAEHXZ                        	@816	NONAME
	?GetCallbackMask@CListViewCtrl@@QAEIXZ                      	@817	NONAME
	?GetCaption@Window@@QAEPADPADH@Z                            	@818	NONAME
	?GetCaretIndex@MultiSelListBox@@QAEFXZ                      	@819	NONAME
	?GetChildItem@CTreeViewCtrl@@QAEPAU_TREEITEM@@PAU2@@Z       	@820	NONAME
	?GetColor@CStdColorDlg@@QAE?AVColor@@XZ                     	@821	NONAME
	?GetColumn@CListViewCtrl@@QAEHHPAU_LV_COLUMNA@@@Z           	@1490	NONAME
	?GetColumnOrderArray@CListViewCtrl@@QAEHHPAH@Z              	@1491	NONAME
	?GetColumnWidth@CListViewCtrl@@QAEHH@Z                      	@823	NONAME
	?GetControl@ControlEvt@@QAEPAVControl@@XZ                   	@824	NONAME
	?GetControl@ControlWindow@@IAEPAVControl@@XZ                	@825	NONAME
	?GetControl@NotifyEvt@@QAEPAVControl@@XZ                    	@826	NONAME
	?GetControlID@ControlEvt@@QAE?AVCvID@@XZ                    	@827	NONAME
	?GetControlID@NotifyEvt@@QAE?AVCvID@@XZ                     	@828	NONAME
	?GetCount@BaseListBox@@QAEHXZ                               	@829	NONAME
	?GetCount@CTreeViewCtrl@@QAEIXZ                             	@830	NONAME
	?GetCountPerPage@CListViewCtrl@@QAEHXZ                      	@831	NONAME
	?GetCurrentFile@FileListBox@@QAEHPADH@Z                     	@832	NONAME
	?GetCurrentIndex@ListBox@@QAEHXZ                            	@833	NONAME
	?GetCurrentString@ListBox@@QAEHPADH@Z                       	@834	NONAME
	?GetDragImage@CImageList@@SAPAV1@PAVPoint@@0@Z              	@835	NONAME
	?GetDrawTarget@Window@@QAEPAUHDC__@@XZ                      	@836	NONAME
	?GetDropHilightItem@CTreeViewCtrl@@QAEPAU_TREEITEM@@XZ      	@837	NONAME
	?GetEditControl@CListViewCtrl@@QAEPAVSingleLineEdit@@XZ     	@838	NONAME
	?GetEditControl@CTreeViewCtrl@@QAEPAVSingleLineEdit@@XZ     	@839	NONAME
	?GetEditSelection@ComboBox@@QAE?AVSelection@@H@Z            	@1421	NONAME
	?GetEditSelection@ComboBox@@QAE?AVSelection@@PADH@Z         	@1422	NONAME
	?GetErrorType@PrinterErrorEvt@@QAE?AW4ErrorType@1@XZ        	@840	NONAME
	?GetExposedArea@CDCExposeEvt@@QAE?AVRectangle@@XZ           	@841	NONAME
	?GetExposedArea@ExposeEvt@@QAE?AVRectangle@@XZ              	@842	NONAME
	?GetExposedArea@PrinterExposeEvt@@QAE?AVRectangle@@XZ       	@843	NONAME
	?GetExtendedStyle@CListViewCtrl@@QAEKXZ                     	@1492	NONAME
	?GetFColor@GaugeBox@@QAE?AVColor@@XZ                        	@844	NONAME
	?GetFileName@CStdFileDlg@@QAEXPADH@Z                        	@845	NONAME
	?GetFileNameLen@CStdFileDlg@@QAEHXZ                         	@846	NONAME
	?GetFilterIndex@CStdFileDlg@@QAEHXZ                         	@847	NONAME
	?GetFirstSelected@MultiSelListBox@@QAEHXZ                   	@848	NONAME
	?GetFirstVisibleItem@CTreeViewCtrl@@QAEPAU_TREEITEM@@XZ     	@849	NONAME
	?GetFont@Window@@QAEPAVFont@@XZ                             	@850	NONAME
	?GetHelpInfo@HelpRequestEvt@@QAEPBUtagHELPINFO@@XZ          	@851	NONAME
	?GetHotCursor@CListViewCtrl@@QAEPAUHICON__@@XZ              	@1493	NONAME
	?GetHotItem@CListViewCtrl@@QAEHXZ                           	@1494	NONAME
	?GetID@Control@@QAE?AVCvID@@XZ                              	@852	NONAME
	?GetID@ControlWindow@@QAE?AVCvID@@XZ                        	@853	NONAME
	?GetImage@PushButton@@QAEPAUHBITMAP__@@XZ                   	@1405	NONAME
	?GetImageCount@CImageList@@QAEHXZ                           	@854	NONAME
	?GetImageInfo@CImageList@@QAEHHPAU_IMAGEINFO@@@Z            	@855	NONAME
	?GetImageList@CListViewCtrl@@QAEPAVCImageList@@H@Z          	@856	NONAME
	?GetImageList@CTreeViewCtrl@@QAEPAVCImageList@@I@Z          	@857	NONAME
	?GetIndent@CTreeViewCtrl@@QAEIXZ                            	@858	NONAME
	?GetItem@CListViewCtrl@@QAEHPAU_LV_ITEMA@@@Z                	@1495	NONAME
	?GetItem@CTreeViewCtrl@@QAEHPAU_TV_ITEMA@@@Z                	@1496	NONAME
	?GetItemCount@CListViewCtrl@@QAEHXZ                         	@861	NONAME
	?GetItemData@CListViewCtrl@@QAEKH@Z                         	@862	NONAME
	?GetItemData@CTreeViewCtrl@@QAEKPAU_TREEITEM@@@Z            	@863	NONAME
	?GetItemData@DeleteItemEvt@@QAEPAXXZ                        	@864	NONAME
	?GetItemData@DrawItemEvt@@QAEPAXXZ                          	@865	NONAME
	?GetItemData@MeasureItemEvt@@QAEPAXXZ                       	@866	NONAME
	?GetItemID@DeleteItemEvt@@QAEHXZ                            	@867	NONAME
	?GetItemID@DrawItemEvt@@QAEHXZ                              	@868	NONAME
	?GetItemID@HelpRequestEvt@@QAEIXZ                           	@869	NONAME
	?GetItemID@MeasureItemEvt@@QAEHXZ                           	@870	NONAME
	?GetItemID@MenuCommandEvt@@QAEIXZ                           	@871	NONAME
	?GetItemID@MenuSelectEvt@@QAEIXZ                            	@872	NONAME
	?GetItemImage@CTreeViewCtrl@@QAEHPAU_TREEITEM@@AAH1@Z       	@873	NONAME
	?GetItemRect@CListViewCtrl@@QAEHHPAUtagRECT@@I@Z            	@874	NONAME
	?GetItemRect@CToolBarCtrl@@QAEHHPAUtagRECT@@@Z              	@875	NONAME
	?GetItemRect@CTreeViewCtrl@@QAEHPAU_TREEITEM@@PAVRectangle@@H@Z	@876	NONAME
	?GetItemSize@CClipboard@@QAEJW4Format@1@@Z                  	@877	NONAME
	?GetItemState@CListViewCtrl@@QAEIHI@Z                       	@878	NONAME
	?GetItemState@CTreeViewCtrl@@QAEIPAU_TREEITEM@@I@Z          	@879	NONAME
	?GetItemText@CListViewCtrl@@QAE?AVstring@@HH@Z              	@880	NONAME
	?GetItemText@CListViewCtrl@@QAEHHHPADH@Z                    	@881	NONAME
	?GetItemText@CTreeViewCtrl@@QAE?AVstring@@PAU_TREEITEM@@@Z  	@882	NONAME
	?GetLine@EditWindow@@QAEIIPADI@Z                            	@883	NONAME
	?GetLine@MultiLineEdit@@QAEIHPADI@Z                         	@884	NONAME
	?GetLineLength@MultiLineEdit@@QAEIH@Z                       	@885	NONAME
	?GetMenu@MenuCommandEvt@@QAEPAVMenu@@XZ                     	@886	NONAME
	?GetMenu@MenuInitEvt@@QAEPAVMenu@@XZ                        	@887	NONAME
	?GetMenu@MenuSelectEvt@@QAEPAVMenu@@XZ                      	@888	NONAME
	?GetMenu@Window@@QAEPAVMenu@@XZ                             	@889	NONAME
	?GetNewHeight@ReSizeEvt@@QAEJXZ                             	@890	NONAME
	?GetNewSize@ReSizeEvt@@QAE?AVDimension@@XZ                  	@891	NONAME
	?GetNewWidth@ReSizeEvt@@QAEJXZ                              	@892	NONAME
	?GetNextItem@CListViewCtrl@@QAEHHH@Z                        	@893	NONAME
	?GetNextItem@CTreeViewCtrl@@QAEPAU_TREEITEM@@PAU2@I@Z       	@894	NONAME
	?GetNextSelected@MultiSelListBox@@QAEHXZ                    	@895	NONAME
	?GetNextSiblingItem@CTreeViewCtrl@@QAEPAU_TREEITEM@@PAU2@@Z 	@896	NONAME
	?GetNextVisibleItem@CTreeViewCtrl@@QAEPAU_TREEITEM@@PAU2@@Z 	@897	NONAME
	?GetNoSelected@MultiSelListBox@@QAEHXZ                      	@898	NONAME
	?GetNotifyInfo@NotifyEvt@@QAEPAUtagNMHDR@@XZ                	@899	NONAME
	?GetNumLines@EditWindow@@QAEIXZ                             	@900	NONAME
	?GetNumLines@MultiLineEdit@@QAEIXZ                          	@901	NONAME
	?GetOldPos@ScrollEvt@@QAEHXZ                                	@902	NONAME
	?GetOrientation@GaugeBox@@QAEFXZ                            	@903	NONAME
	?GetOrigin@CListViewCtrl@@QAEHPAUtagPOINT@@@Z               	@904	NONAME
	?GetPage@CPropertySheet@@QBEPAVCPropertyPage@@I@Z           	@905	NONAME
	?GetPageCount@CPropertySheet@@QAEHXZ                        	@906	NONAME
	?GetPageNumber@PrinterExposeEvt@@QAEHXZ                     	@907	NONAME
	?GetPageSize@ScrollBar@@QAEIXZ                              	@1402	NONAME
	?GetParent@Control@@QAEPAVWindow@@XZ                        	@908	NONAME
	?GetParent@Window@@QAEPAV1@XZ                               	@909	NONAME
	?GetParentItem@CTreeViewCtrl@@QAEPAU_TREEITEM@@PAU2@@Z      	@910	NONAME
	?GetParts@CStatusBarCtrl@@QAEHHPAH@Z                        	@911	NONAME
	?GetPen@Window@@QAEPAVPen@@XZ                               	@912	NONAME
	?GetPointer@Window@@QAEPAVPointer@@XZ                       	@913	NONAME
	?GetPos@CSpinButtonCtrl@@QAEHXZ                             	@914	NONAME
	?GetPos@Cursor@@QAE?AVPoint@@XZ                             	@915	NONAME
	?GetPos@Pointer@@QAE?AVPoint@@XZ                            	@916	NONAME
	?GetPos@ScrollEvt@@QAEHXZ                                   	@917	NONAME
	?GetPosition@Control@@QAE?AVPoint@@XZ                       	@918	NONAME
	?GetPosition@DrawObject@@UAE?AVPoint@@XZ                    	@919	NONAME
	?GetPosition@GaugeBox@@QAEFXZ                               	@920	NONAME
	?GetPosition@Window@@QAE?AVPoint@@XZ                        	@921	NONAME
	?GetPrevSiblingItem@CTreeViewCtrl@@QAEPAU_TREEITEM@@PAU2@@Z 	@922	NONAME
	?GetPrevVisibleItem@CTreeViewCtrl@@QAEPAU_TREEITEM@@PAU2@@Z 	@923	NONAME
	?GetPropertySheet@CPropertyPage@@IAEPAVCPropertySheet@@XZ   	@1386	NONAME
	?GetRange@CSpinButtonCtrl@@QAEKXZ                           	@924	NONAME
	?GetRange@CSpinButtonCtrl@@QAEXAAH0@Z                       	@925	NONAME
	?GetRange@GaugeBox@@QAEFXZ                                  	@926	NONAME
	?GetRange@ScrollBar@@QAE?AVRange@@XZ                        	@927	NONAME
	?GetRect@CStatusBarCtrl@@QAEHHPAUtagRECT@@@Z                	@928	NONAME
	?GetRootItem@CTreeViewCtrl@@QAEPAU_TREEITEM@@XZ             	@929	NONAME
	?GetRow@MultiSelTabularListBox@@QAAHHZZ                     	@930	NONAME
	?GetRow@TabularListBox@@QAAHHZZ                             	@931	NONAME
	?GetRows@CToolBarCtrl@@QAEHXZ                               	@932	NONAME
	?GetScrollBar@ScrollEvt@@QAEPAVScrollBar@@XZ                	@933	NONAME
	?GetScrollType@ScrollEvt@@QAE?AW4ScrollType@@XZ             	@934	NONAME
	?GetSelectedCount@CListViewCtrl@@QAEIXZ                     	@935	NONAME
	?GetSelectedItem@CTreeViewCtrl@@QAEPAU_TREEITEM@@XZ         	@936	NONAME
	?GetSelection@Edit@@QAE?AVSelection@@H@Z                    	@937	NONAME
	?GetSelection@Edit@@QAE?AVSelection@@PADH@Z                 	@938	NONAME
	?GetSelection@EditWindow@@QAE?AVSelection@@XZ               	@939	NONAME
	?GetSelection@MultiSelListBox@@QAEHF@Z                      	@940	NONAME
	?GetSize@Bitmap@@QAE?AVDimension@@XZ                        	@941	NONAME
	?GetSize@Control@@QAE?AVDimension@@XZ                       	@942	NONAME
	?GetSize@DrawObject@@UAE?AVDimension@@XZ                    	@943	NONAME
	?GetSize@LineObject@@UAE?AVDimension@@XZ                    	@944	NONAME
	?GetSize@ShapeObject@@UAE?AVDimension@@XZ                   	@945	NONAME
	?GetSize@Window@@QAE?AVDimension@@XZ                        	@946	NONAME
	?GetState@CToolBarCtrl@@QAEHH@Z                             	@947	NONAME
	?GetState@RadioButton@@QAEHXZ                               	@948	NONAME
	?GetString@BaseListBox@@QAEHPADHH@Z                         	@949	NONAME
	?GetString@MenuCommandEvt@@QAEPADPADH@Z                     	@950	NONAME
	?GetString@MenuSelectEvt@@QAEPADPADH@Z                      	@951	NONAME
	?GetStringLength@BaseListBox@@QAEHH@Z                       	@952	NONAME
	?GetStringWidth@CListViewCtrl@@QAEHPBD@Z                    	@953	NONAME
	?GetSubItemRect@CListViewCtrl@@QAEHHHHPAUtagRECT@@@Z        	@1497	NONAME
	?GetText@CStatusBarCtrl@@QAE?AVstring@@HPAH@Z               	@954	NONAME
	?GetText@CStatusBarCtrl@@QAEHPBDHPAH@Z                      	@955	NONAME
	?GetText@CToolTipCtrl@@QAEXAAVstring@@PAVWindow@@I@Z        	@956	NONAME
	?GetText@EditWindow@@QAEXPADI@Z                             	@957	NONAME
	?GetText@TextControl@@QAEXPADI@Z                            	@958	NONAME
	?GetTextBkColor@CListViewCtrl@@QAEKXZ                       	@959	NONAME
	?GetTextColor@CListViewCtrl@@QAEKXZ                         	@960	NONAME
	?GetTextLen@EditWindow@@QAEIXZ                              	@961	NONAME
	?GetTextLen@TextControl@@QAEIXZ                             	@962	NONAME
	?GetTextLength@CStatusBarCtrl@@QAEHHPAH@Z                   	@963	NONAME
	?GetThumbPos@ScrollBar@@QAEHXZ                              	@964	NONAME
	?GetToolCount@CToolTipCtrl@@QAEHXZ                          	@965	NONAME
	?GetToolInfo@CToolTipCtrl@@QAEHPAUtagTOOLINFOA@@PAVWindow@@I@Z	@966	NONAME
	?GetToolTipID@ToolTipEvt@@QAEIXZ                            	@967	NONAME
	?GetToolTips@CToolBarCtrl@@QAEPAVCToolTipCtrl@@XZ           	@968	NONAME
	?GetTopIndex@CListViewCtrl@@QAEHXZ                          	@969	NONAME
	?GetTrackPos@ScrollBar@@QAEHXZ                              	@1404	NONAME
	?GetType@MessBox@@QAEHXZ                                    	@970	NONAME
	?GetUnit@ScrollBar@@QAEIXZ                                  	@971	NONAME
	?GetViewRect@CListViewCtrl@@QAEHPAUtagRECT@@@Z              	@972	NONAME
	?GetVisibleCount@CTreeViewCtrl@@QAEIXZ                      	@973	NONAME
	?GetWindowArea@HelpRequestEvt@@QAE?AW4WindowArea@@XZ        	@974	NONAME
	?GetX@Point@@QBEJXZ                                         	@1476	NONAME
	?GetY@Point@@QBEJXZ                                         	@1477	NONAME
	?Green@Color@@QAEAAEXZ                                      	@975	NONAME
	?Handle@Accel@@QAEPAUHACCEL__@@G@Z                          	@976	NONAME
	?Handle@App@@SAPAUHINSTANCE__@@G@Z                          	@977	NONAME
	?Handle@Bitmap@@QAEPAUHBITMAP__@@G@Z                        	@978	NONAME
	?Handle@Brush@@QAEPAUHBRUSH__@@G@Z                          	@979	NONAME
	?Handle@CDCWindow@@QAEPAUHWND__@@G@Z                        	@980	NONAME
	?Handle@CImageList@@QBEPAU_IMAGELIST@@G@Z                   	@981	NONAME
	?Handle@CPropertyPage@@QAEPAUHWND__@@G@Z                    	@982	NONAME
	?Handle@Control@@QAEPAUHWND__@@G@Z                          	@983	NONAME
	?Handle@Cursor@@QAEPAUHWND__@@G@Z                           	@984	NONAME
	?Handle@DialogWindow@@QAEPAUHWND__@@G@Z                     	@985	NONAME
	?Handle@DrawItemEvt@@QAEPAXG@Z                              	@986	NONAME
	?Handle@DrawObject@@IAEPAUHDC__@@G@Z                        	@987	NONAME
	?Handle@EventContext@@IAEPAUHWND__@@G@Z                     	@988	NONAME
	?Handle@Font@@QAEPAUHFONT__@@G@Z                            	@989	NONAME
	?Handle@HelpDisplay@@QAEPAXG@Z                              	@990	NONAME
	?Handle@Icon@@QAEPAUHICON__@@G@Z                            	@991	NONAME
	?Handle@MeasureItemEvt@@QAEPAUHWND__@@G@Z                   	@992	NONAME
	?Handle@Menu@@QAEPAUHMENU__@@G@Z                            	@993	NONAME
	?Handle@MessBox@@QAEPAUHWND__@@G@Z                          	@994	NONAME
	?Handle@Pen@@QAEPAUHPEN__@@G@Z                              	@995	NONAME
	?Handle@Pointer@@QAEPAUHICON__@@G@Z                         	@996	NONAME
	?Handle@Printer@@QAEPAUHDC__@@G@Z                           	@997	NONAME
	?Handle@ResID@@QAEPAUHINSTANCE__@@XZ                        	@998	NONAME
	?Handle@ShellWindow@@QAEPAUHWND__@@G@Z                      	@999	NONAME
	?Handle@Window@@QAEPAUHWND__@@G@Z                           	@1000	NONAME
	?Height@Dimension@@QAEAAJXZ                                 	@1001	NONAME
	?HelpError@HelpDisplay@@QAE?AW4HdError@@XZ                  	@1002	NONAME
	?HelpRequest@Window@@MAEXVHelpRequestEvt@@@Z                	@1003	NONAME
	?Hide@Control@@QAEXXZ                                       	@1004	NONAME
	?Hide@ControlWindow@@QAEXXZ                                 	@1005	NONAME
	?Hide@Cursor@@QAEXXZ                                        	@1006	NONAME
	?Hide@Pointer@@QAEXXZ                                       	@1007	NONAME
	?Hide@Window@@QAEXXZ                                        	@1008	NONAME
	?HideButton@CToolBarCtrl@@QAEHHH@Z                          	@1009	NONAME
	?HitTest@CListViewCtrl@@QAEHPAU_LV_HITTESTINFO@@@Z          	@1498	NONAME
	?HitTest@CListViewCtrl@@QAEHVPoint@@PAI@Z                   	@1011	NONAME
	?HitTest@CToolTipCtrl@@QAEHPAVWindow@@VPoint@@PAUtagTOOLINFOA@@@Z	@1012	NONAME
	?HitTest@CTreeViewCtrl@@QAEPAU_TREEITEM@@PAU_TV_HITTESTINFO@@@Z	@1499	NONAME
	?HitTest@CTreeViewCtrl@@QAEPAU_TREEITEM@@VPoint@@PAI@Z      	@1014	NONAME
	?HitTest@DrawObject@@UAEHVPoint@@@Z                         	@1015	NONAME
	?HorizScroll@ControlWindow@@MAEXVScrollEvt@@@Z              	@1016	NONAME
	?HorizScroll@Window@@MAEXVScrollEvt@@@Z                     	@1017	NONAME
	?Idle@Printer@@MAEXXZ                                       	@1018	NONAME
	?Indeterminate@CToolBarCtrl@@QAEHHH@Z                       	@1019	NONAME
	?Init@Font@@QAEXXZ                                          	@1020	NONAME
	?InitFromData@PrintingDevice@@QAEHPAUtagDVTARGETDEVICE@@@Z  	@1467	NONAME
	?InitFromDefaultPrinter@PrintingDevice@@QAEHPAPAUtagDVTARGETDEVICE@@@Z	@1470	NONAME
	?Insert@CClipboard@@QAEXPBD@Z                               	@1021	NONAME
	?Insert@CClipboard@@QAEXQAVBitmap@@@Z                       	@1022	NONAME
	?Insert@CVLinked_List@@QAEXPAX0@Z                           	@1023	NONAME
	?Insert@CVTable@@QAEXIPBD@Z                                 	@1024	NONAME
	?InsertButton@CToolBarCtrl@@QAEHHPAU_TBBUTTON@@@Z           	@1025	NONAME
	?InsertColumn@CListViewCtrl@@QAEHHPBDHHH@Z                  	@1026	NONAME
	?InsertColumn@CListViewCtrl@@QAEHHPBU_LV_COLUMNA@@@Z        	@1500	NONAME
	?InsertItem@CListViewCtrl@@QAEHHPBD@Z                       	@1028	NONAME
	?InsertItem@CListViewCtrl@@QAEHHPBDH@Z                      	@1029	NONAME
	?InsertItem@CListViewCtrl@@QAEHIHPBDIIHJ@Z                  	@1030	NONAME
	?InsertItem@CListViewCtrl@@QAEHPBU_LV_ITEMA@@@Z             	@1501	NONAME
	?InsertItem@CTreeViewCtrl@@QAEPAU_TREEITEM@@IPBDHHIIJPAU2@1@Z	@1032	NONAME
	?InsertItem@CTreeViewCtrl@@QAEPAU_TREEITEM@@PBDHHPAU2@1@Z   	@1033	NONAME
	?InsertItem@CTreeViewCtrl@@QAEPAU_TREEITEM@@PBDPAU2@1@Z     	@1034	NONAME
	?InsertItem@CTreeViewCtrl@@QAEPAU_TREEITEM@@PBU_TV_INSERTSTRUCTA@@@Z	@1423	NONAME
	?InsertItem@Menu@@QAEHIPAVBitmap@@I@Z                       	@1036	NONAME
	?InsertItem@Menu@@QAEHIPBDI@Z                               	@1037	NONAME
	?InsertItem@Menu@@QAEHPAV1@PBDI@Z                           	@1038	NONAME
	?InsertSeparator@Menu@@QAEHI@Z                              	@1039	NONAME
	?IsButtonChecked@CToolBarCtrl@@QAEHH@Z                      	@1040	NONAME
	?IsButtonEnabled@CToolBarCtrl@@QAEHH@Z                      	@1041	NONAME
	?IsButtonHidden@CToolBarCtrl@@QAEHH@Z                       	@1042	NONAME
	?IsButtonIndeterminate@CToolBarCtrl@@QAEHH@Z                	@1043	NONAME
	?IsButtonPressed@CToolBarCtrl@@QAEHH@Z                      	@1044	NONAME
	?Item@CVLink@@QAEPAXXZ                                      	@1045	NONAME
	?ItemHasChildren@CTreeViewCtrl@@QAEHPAU_TREEITEM@@@Z        	@1046	NONAME
	?ItemSize@DrawItemEvt@@QAE?AVRectangle@@XZ                  	@1047	NONAME
	?ItemType@OwnerDrawEvt@@QAE?AW4OwnerDrawControl@1@XZ        	@1048	NONAME
	?Key@CVLink@@QAEPAXXZ                                       	@1049	NONAME
	?KeyDown@Window@@MAEXVKeyEvt@@@Z                            	@1050	NONAME
	?KeyUp@Window@@MAEXVKeyEvt@@@Z                              	@1051	NONAME
	?Keycode@KeyEvt@@QAEFXZ                                     	@1052	NONAME
	?LParam@Event@@QAEAAJXZ                                     	@1424	NONAME
	?Left@Rectangle@@QAEAAJXZ                                   	@1053	NONAME
	?Len@ResString@@QAEHXZ                                      	@1054	NONAME
	?LineDown@EditWindow@@QAEXXZ                                	@1055	NONAME
	?LineDown@MultiLineEdit@@QAEXXZ                             	@1056	NONAME
	?LineTo@Window@@QAEXVPoint@@@Z                              	@1057	NONAME
	?LineUp@EditWindow@@QAEXXZ                                  	@1058	NONAME
	?LineUp@MultiLineEdit@@QAEXXZ                               	@1059	NONAME
	?List@FileListBox@@QAEHPBDI@Z                               	@1060	NONAME
	?ListBoxClk@Window@@MAEXVControlEvt@@@Z                     	@1061	NONAME
	?ListBoxSel@Window@@MAEXVControlEvt@@@Z                     	@1062	NONAME
	?LockOrder@CVLinked_List@@QAEXE@Z                           	@1063	NONAME
	?LowerRight@Rectangle@@QAE?AVPoint@@XZ                      	@1064	NONAME
	?Max@Range@@QAEAAJXZ                                        	@1065	NONAME
	?MeasureItem@Window@@MAEHVMeasureItemEvt@@@Z                	@1066	NONAME
	?MenuCommand@Window@@MAEXVMenuCommandEvt@@@Z                	@1067	NONAME
	?MenuInit@Window@@MAEXVMenuInitEvt@@@Z                      	@1068	NONAME
	?MenuSelect@Window@@MAEXVMenuSelectEvt@@@Z                  	@1069	NONAME
	?Min@Range@@QAEAAJXZ                                        	@1070	NONAME
	?MouseButtonDblClk@Window@@MAEXVMouseEvt@@@Z                	@1071	NONAME
	?MouseButtonDn@Window@@MAEXVMouseEvt@@@Z                    	@1072	NONAME
	?MouseButtonUp@Window@@MAEXVMouseEvt@@@Z                    	@1073	NONAME
	?MouseDrag@Window@@MAEXVMouseEvt@@@Z                        	@1074	NONAME
	?MouseMove@Window@@MAEXVMouseEvt@@@Z                        	@1075	NONAME
	?MouseTrap@Window@@QAEXH@Z                                  	@1076	NONAME
	?Move@Window@@MAEXVMoveEvt@@@Z                              	@1077	NONAME
	?MoveTo@Window@@QAE?AVPoint@@V2@@Z                          	@1078	NONAME
	?MoveToFront@CVLinked_List@@IAEXXZ                          	@1079	NONAME
	?Msg@Event@@QAEAAIXZ                                        	@1425	NONAME
	?NewOrigin@MoveEvt@@QAE?AVPoint@@XZ                         	@1080	NONAME
	?Next@CVLink@@QAEPAV1@XZ                                    	@1081	NONAME
	?Next@CVLinked_List@@QAEPAVCVLink@@XZ                       	@1082	NONAME
	?OffsetPos@CProgressCtrl@@QAEHH@Z                           	@1083	NONAME
	?OnBeginAdjust@Window@@MAEXVNotifyEvt@@@Z                   	@1084	NONAME
	?OnBeginDrag@Window@@MAEXVNotifyEvt@@@Z                     	@1085	NONAME
	?OnBeginLabelEdit@Window@@MAEHVNotifyEvt@@@Z                	@1086	NONAME
	?OnBeginRDrag@Window@@MAEXVNotifyEvt@@@Z                    	@1087	NONAME
	?OnCancel@CPropertyPage@@MAEXVNotifyEvt@@@Z                 	@1088	NONAME
	?OnClick@Window@@MAEXVNotifyEvt@@@Z                         	@1089	NONAME
	?OnColumnClick@Window@@MAEXVNotifyEvt@@@Z                   	@1090	NONAME
	?OnCustHelp@Window@@MAEXVNotifyEvt@@@Z                      	@1091	NONAME
	?OnDblClick@Window@@MAEXVNotifyEvt@@@Z                      	@1092	NONAME
	?OnDeleteAllItems@Window@@MAEXVNotifyEvt@@@Z                	@1093	NONAME
	?OnDeleteItem@Window@@MAEXVNotifyEvt@@@Z                    	@1094	NONAME
	?OnDeltaPos@Window@@MAEHVNotifyEvt@@@Z                      	@1095	NONAME
	?OnEndAdjust@Window@@MAEXVNotifyEvt@@@Z                     	@1096	NONAME
	?OnEndDrag@Window@@MAEXVNotifyEvt@@@Z                       	@1097	NONAME
	?OnEndLabelEdit@Window@@MAEXVNotifyEvt@@@Z                  	@1098	NONAME
	?OnGetButtonInfo@Window@@MAEHVNotifyEvt@@@Z                 	@1099	NONAME
	?OnGetDispInfo@Window@@MAEXVNotifyEvt@@@Z                   	@1100	NONAME
	?OnHelp@CPropertyPage@@MAEXVNotifyEvt@@@Z                   	@1101	NONAME
	?OnHidingTip@Window@@MAEXVToolTipEvt@@@Z                    	@1102	NONAME
	?OnInsertItem@Window@@MAEXVNotifyEvt@@@Z                    	@1103	NONAME
	?OnItemChanged@Window@@MAEXVNotifyEvt@@@Z                   	@1104	NONAME
	?OnItemChanging@Window@@MAEHVNotifyEvt@@@Z                  	@1105	NONAME
	?OnItemExpanded@Window@@MAEXVNotifyEvt@@@Z                  	@1106	NONAME
	?OnItemExpanding@Window@@MAEHVNotifyEvt@@@Z                 	@1107	NONAME
	?OnKeyDown@Window@@MAEXVNotifyEvt@@@Z                       	@1108	NONAME
	?OnKillActive@CPropertyPage@@MAEHVNotifyEvt@@@Z             	@1109	NONAME
	?OnNeedText@Window@@MAEXVToolTipEvt@@@Z                     	@1110	NONAME
	?OnOK@CPropertyPage@@MAEHVNotifyEvt@@@Z                     	@1111	NONAME
	?OnQueryCancel@CPropertyPage@@MAEHVNotifyEvt@@@Z            	@1112	NONAME
	?OnQueryDelete@Window@@MAEHVNotifyEvt@@@Z                   	@1113	NONAME
	?OnQueryInsert@Window@@MAEHVNotifyEvt@@@Z                   	@1114	NONAME
	?OnReset@Window@@MAEXVNotifyEvt@@@Z                         	@1115	NONAME
	?OnSelChanged@Window@@MAEXVNotifyEvt@@@Z                    	@1116	NONAME
	?OnSelChanging@Window@@MAEHVNotifyEvt@@@Z                   	@1117	NONAME
	?OnSetActive@CPropertyPage@@MAEHVNotifyEvt@@@Z              	@1118	NONAME
	?OnSetDispInfo@Window@@MAEXVNotifyEvt@@@Z                   	@1119	NONAME
	?OnShowingTip@Window@@MAEXVToolTipEvt@@@Z                   	@1120	NONAME
	?OnToolBarChange@Window@@MAEXVNotifyEvt@@@Z                 	@1121	NONAME
	?OnWizBack@CPropertyPage@@MAEHVNotifyEvt@@@Z                	@1122	NONAME
	?OnWizFinish@CPropertyPage@@MAEHVNotifyEvt@@@Z              	@1123	NONAME
	?OnWizNext@CPropertyPage@@MAEHVNotifyEvt@@@Z                	@1124	NONAME
	?Open@CAnimateCtrl@@QAEHI@Z                                 	@1445	NONAME
	?Open@CAnimateCtrl@@QAEHPBD@Z                               	@1446	NONAME
	?PageDown@EditWindow@@QAEXXZ                                	@1125	NONAME
	?PageDown@MultiLineEdit@@QAEXXZ                             	@1126	NONAME
	?PageUp@EditWindow@@QAEXXZ                                  	@1127	NONAME
	?PageUp@MultiLineEdit@@QAEXXZ                               	@1128	NONAME
	?PaintRectangle@Window@@QAEXVRectangle@@W4PaintMode@@@Z     	@1129	NONAME
	?PaletteChange@Window@@MAEXVPaletteChangeEvt@@@Z            	@1130	NONAME
	?Play@CAnimateCtrl@@QAEHIII@Z                               	@1447	NONAME
	?PortName@PrintingDevice@@QAEPBDXZ                          	@1131	NONAME
	?PostEvent@Control@@QAEXVEvent@@@Z                          	@1502	NONAME
	?PostEvent@Window@@QAEXVEvent@@@Z                           	@1503	NONAME
	?PreTranslateMsg@DialogWindow@@UAEHPAUtagMSG@@@Z            	@1468	NONAME
	?PreTranslateMsg@Window@@UAEHPAUtagMSG@@@Z                  	@1469	NONAME
	?PressButton@CPropertySheet@@QAEXK@Z                        	@1132	NONAME
	?PressButton@CToolBarCtrl@@QAEHHH@Z                         	@1133	NONAME
	?PressSheetButton@CPropertyPage@@QAEXK@Z                    	@1426	NONAME
	?PrinterError@Printer@@MAEHVPrinterErrorEvt@@@Z             	@1134	NONAME
	?PrinterExpose@BandingPrinter@@MAEHVPrinterExposeEvt@@@Z    	@1135	NONAME
	?PrinterExpose@Printer@@MAEHVPrinterExposeEvt@@@Z           	@1136	NONAME
	?Process@DrawObject@@UAEXVPoint@@@Z                         	@1137	NONAME
	?PtInRect@Rectangle@@QAEHVPoint@@@Z                         	@1138	NONAME
	?QueryClose@Window@@MAEHVEvent@@@Z                          	@1139	NONAME
	?QuerySiblings@CPropertyPage@@QAEJIJ@Z                      	@1427	NONAME
	?Quit@App@@SAXXZ                                            	@1140	NONAME
	?QuitOnLast@App@@QAEHXZ                                     	@1415	NONAME
	?RePaint@Window@@QAEXXZ                                     	@1141	NONAME
	?RePaintRect@Window@@QAEXVRectangle@@@Z                     	@1142	NONAME
	?ReSize@Window@@MAEXVReSizeEvt@@@Z                          	@1143	NONAME
	?Red@Color@@QAEAAEXZ                                        	@1144	NONAME
	?RedrawItems@CListViewCtrl@@QAEHHH@Z                        	@1145	NONAME
	?RelayEvent@CToolTipCtrl@@QAEXPAUtagMSG@@@Z                 	@1146	NONAME
	?Remove@CImageList@@QAEHH@Z                                 	@1147	NONAME
	?RemoveImageList@CListViewCtrl@@IAEXH@Z                     	@1148	NONAME
	?RemoveImageList@CTreeViewCtrl@@IAEXH@Z                     	@1149	NONAME
	?RemovePage@CPropertySheet@@QAEHI@Z                         	@1150	NONAME
	?RemovePage@CPropertySheet@@QAEHPAU_PSP@@@Z                 	@1151	NONAME
	?RemovePage@CPropertySheet@@QAEHPAVCPropertyPage@@@Z        	@1152	NONAME
	?Render@CDCWindow@@QAEHAAVRectangle@@@Z                     	@1153	NONAME
	?Repeat@KeyEvt@@QAEFXZ                                      	@1154	NONAME
	?Replace@CImageList@@QAEHHPAVBitmap@@0@Z                    	@1155	NONAME
	?Replace@CImageList@@QAEHHPAVIcon@@@Z                       	@1156	NONAME
	?ReplaceSelected@Edit@@QAEHPBD@Z                            	@1157	NONAME
	?ReplaceSelected@EditWindow@@QAEXPBD@Z                      	@1158	NONAME
	?RequestType@HelpRequestEvt@@QAE?AW4HelpType@@XZ            	@1159	NONAME
	?Reserved@Color@@QAEAAEXZ                                   	@1160	NONAME
	?RestoreState@CToolBarCtrl@@QAEXPAUHKEY__@@PBD1@Z           	@1161	NONAME
	?Result@CStdFileDlg@@QAEHXZ                                 	@1162	NONAME
	?Result@DialogWindow@@QAEHXZ                                	@1163	NONAME
	?Retrieve@CClipboard@@QAEHPADH@Z                            	@1164	NONAME
	?Retrieve@CClipboard@@QAEHPAVBitmap@@@Z                     	@1165	NONAME
	?Right@Rectangle@@QAEAAJXZ                                  	@1166	NONAME
	?Run@App@@SAJPBD@Z                                          	@1167	NONAME
	?SaveState@CToolBarCtrl@@QAEXPAUHKEY__@@PBD1@Z              	@1168	NONAME
	?Scroll@CListViewCtrl@@QAEHVDimension@@@Z                   	@1169	NONAME
	?Scroll@Window@@QAEXVDimension@@VRectangle@@H@Z             	@1170	NONAME
	?ScrollHoriz@EditWindow@@QAEXI@Z                            	@1171	NONAME
	?ScrollHoriz@MultiLineEdit@@QAEXH@Z                         	@1172	NONAME
	?ScrollVertical@EditWindow@@QAEXI@Z                         	@1173	NONAME
	?ScrollVertical@MultiLineEdit@@QAEXH@Z                      	@1174	NONAME
	?Seek@CAnimateCtrl@@QAEHI@Z                                 	@1450	NONAME
	?Select@CTreeViewCtrl@@QAEPAU_TREEITEM@@PAU2@I@Z            	@1175	NONAME
	?SelectDropTarget@CTreeViewCtrl@@QAEPAU_TREEITEM@@PAU2@@Z   	@1176	NONAME
	?SelectItem@CTreeViewCtrl@@QAEPAU_TREEITEM@@PAU2@@Z         	@1177	NONAME
	?SelectSetFirstVisible@CTreeViewCtrl@@QAEPAU_TREEITEM@@PAU2@@Z	@1178	NONAME
	?Set3DWidth@GaugeBox@@QAEXF@Z                               	@1179	NONAME
	?SetAccel@CSpinButtonCtrl@@QAEHHPAU_UDACCEL@@@Z             	@1180	NONAME
	?SetAutoUpdate@Menu@@QAEXI@Z                                	@1181	NONAME
	?SetBase@CSpinButtonCtrl@@QAEHH@Z                           	@1182	NONAME
	?SetBezelFace@GaugeBox@@QAEXF@Z                             	@1183	NONAME
	?SetBitmapSize@CToolBarCtrl@@QAEHVDimension@@@Z             	@1184	NONAME
	?SetBits@Bitmap@@QAEKKPAG@Z                                 	@1185	NONAME
	?SetBkColor@CImageList@@QAEKK@Z                             	@1186	NONAME
	?SetBkColor@CListViewCtrl@@QAEHK@Z                          	@1187	NONAME
	?SetBkColor@GaugeBox@@QAEXVColor@@@Z                        	@1188	NONAME
	?SetBlock@ScrollBar@@QAEXI@Z                                	@1189	NONAME
	?SetBold@Font@@QAEXXZ                                       	@1190	NONAME
	?SetBorders@CStatusBarCtrl@@QAEHHHH@Z                       	@1191	NONAME
	?SetBorders@CStatusBarCtrl@@QAEHPAH@Z                       	@1192	NONAME
	?SetBuddy@CSpinButtonCtrl@@QAEPAVControl@@PAV2@@Z           	@1193	NONAME
	?SetButtonSize@CToolBarCtrl@@QAEHVDimension@@@Z             	@1194	NONAME
	?SetButtonStructSize@CToolBarCtrl@@QAEXH@Z                  	@1195	NONAME
	?SetCallbackMask@CListViewCtrl@@QAEHI@Z                     	@1196	NONAME
	?SetCaption@CStdFileDlg@@QAEXPBD@Z                          	@1197	NONAME
	?SetCaption@Window@@QAEXPBD@Z                               	@1198	NONAME
	?SetCaretIndex@MultiSelListBox@@QAEHFH@Z                    	@1199	NONAME
	?SetChecked@CheckBox@@QAEXH@Z                               	@1200	NONAME
	?SetCmdID@CToolBarCtrl@@QAEHHI@Z                            	@1201	NONAME
	?SetColWidth@MultiSelTabularListBox@@QAEXII@Z               	@1202	NONAME
	?SetColWidth@TabularListBox@@QAEXII@Z                       	@1203	NONAME
	?SetColumn@CListViewCtrl@@QAEHHPBU_LV_COLUMNA@@@Z           	@1428	NONAME
	?SetColumnOrderArray@CListViewCtrl@@QAEHHPAH@Z              	@1429	NONAME
	?SetColumnWidth@CListViewCtrl@@QAEHHH@Z                     	@1205	NONAME
	?SetCurSel@CPropertySheet@@QAEHI@Z                          	@1206	NONAME
	?SetCurSel@CPropertySheet@@QAEHPAU_PSP@@@Z                  	@1207	NONAME
	?SetCurSel@CPropertySheet@@QAEHPAVCPropertyPage@@@Z         	@1208	NONAME
	?SetCustomData@CStdFileDlg@@QAEXK@Z                         	@1209	NONAME
	?SetDelayTime@CToolTipCtrl@@QAEXI@Z                         	@1210	NONAME
	?SetDeltaPos@GaugeBox@@QAEXF@Z                              	@1211	NONAME
	?SetDragCursorImage@CImageList@@QAEHHVPoint@@@Z             	@1212	NONAME
	?SetDrawTarget@Window@@QAEPAUHDC__@@PAU2@@Z                 	@1213	NONAME
	?SetEscapement@Font@@QAEFF@Z                                	@1214	NONAME
	?SetExtendedStyle@CListViewCtrl@@QAEKK@Z                    	@1430	NONAME
	?SetFColor@GaugeBox@@QAEXVColor@@@Z                         	@1215	NONAME
	?SetFileName@CStdFileDlg@@QAEXPBD@Z                         	@1216	NONAME
	?SetFilterIndex@CStdFileDlg@@QAEXH@Z                        	@1217	NONAME
	?SetFixedPitch@Font@@QAEXXZ                                 	@1218	NONAME
	?SetFlags@CStdFileDlg@@QAEXJ@Z                              	@1219	NONAME
	?SetFocus@Control@@QAEXXZ                                   	@1220	NONAME
	?SetFocus@ControlWindow@@QAEXXZ                             	@1221	NONAME
	?SetFocus@Window@@QAEXXZ                                    	@1222	NONAME
	?SetHookFcn@CStdFileDlg@@QAEXP6AIPAUHWND__@@IIJ@Z@Z         	@1223	NONAME
	?SetHotCursor@CListViewCtrl@@QAEPAUHICON__@@PAU2@@Z         	@1431	NONAME
	?SetHotItem@CListViewCtrl@@QAEHH@Z                          	@1432	NONAME
	?SetIcon@AppWindow@@QAEXPAVIcon@@@Z                         	@1224	NONAME
	?SetIcon@CPropertyPage@@QAEXPAVIcon@@@Z                     	@1225	NONAME
	?SetIcon@CPropertyPage@@QAEXVResID@@@Z                      	@1226	NONAME
	?SetIcon@CPropertySheet@@QAEXPAVIcon@@@Z                    	@1227	NONAME
	?SetIcon@CPropertySheet@@QAEXVResID@@@Z                     	@1228	NONAME
	?SetImage@PushButton@@QAEPAUHBITMAP__@@PAU2@@Z              	@1406	NONAME
	?SetImageList@CListViewCtrl@@QAEPAVCImageList@@PAV2@H@Z     	@1229	NONAME
	?SetImageList@CTreeViewCtrl@@QAEPAVCImageList@@PAV2@H@Z     	@1230	NONAME
	?SetIndent@CTreeViewCtrl@@QAEXI@Z                           	@1231	NONAME
	?SetIndex@CImageListObject@@QAEXH@Z                         	@1232	NONAME
	?SetInitialDir@CStdFileDlg@@QAEXPBD@Z                       	@1233	NONAME
	?SetItalic@Font@@QAEXXZ                                     	@1234	NONAME
	?SetItem@CListViewCtrl@@QAEHHHIPBDHIIJ@Z                    	@1235	NONAME
	?SetItem@CListViewCtrl@@QAEHPBU_LV_ITEMA@@@Z                	@1433	NONAME
	?SetItem@CTreeViewCtrl@@QAEHPAU_TREEITEM@@IPBDHHIIJ@Z       	@1237	NONAME
	?SetItem@CTreeViewCtrl@@QAEHPBU_TV_ITEMA@@@Z                	@1434	NONAME
	?SetItemCount@CListViewCtrl@@QAEXH@Z                        	@1239	NONAME
	?SetItemData@CListViewCtrl@@QAEHHK@Z                        	@1240	NONAME
	?SetItemData@CTreeViewCtrl@@QAEHPAU_TREEITEM@@K@Z           	@1241	NONAME
	?SetItemHeight@MeasureItemEvt@@QAEXJ@Z                      	@1242	NONAME
	?SetItemImage@CTreeViewCtrl@@QAEHPAU_TREEITEM@@HH@Z         	@1243	NONAME
	?SetItemState@CListViewCtrl@@QAEHHII@Z                      	@1244	NONAME
	?SetItemState@CListViewCtrl@@QAEHHPAU_LV_ITEMA@@@Z          	@1435	NONAME
	?SetItemState@CTreeViewCtrl@@QAEHPAU_TREEITEM@@II@Z         	@1246	NONAME
	?SetItemText@CListViewCtrl@@QAEHHHPAD@Z                     	@1247	NONAME
	?SetItemText@CTreeViewCtrl@@QAEHPAU_TREEITEM@@PBD@Z         	@1248	NONAME
	?SetItemWidth@MeasureItemEvt@@QAEXJ@Z                       	@1249	NONAME
	?SetLight@Font@@QAEXXZ                                      	@1250	NONAME
	?SetMinHeight@CStatusBarCtrl@@QAEXH@Z                       	@1251	NONAME
	?SetModified@CPropertyPage@@QAEXH@Z                         	@1252	NONAME
	?SetModified@Edit@@QAEXH@Z                                  	@1253	NONAME
	?SetMultiStyle@MultiLineEdit@@QAEXW4MultiLineStyle@1@@Z     	@1254	NONAME
	?SetNormal@Font@@QAEXXZ                                     	@1255	NONAME
	?SetOrientation@Font@@QAEFF@Z                               	@1256	NONAME
	?SetOrientation@GaugeBox@@QAEXF@Z                           	@1257	NONAME
	?SetOverlayImage@CImageList@@QAEHHH@Z                       	@1258	NONAME
	?SetOwner@CToolBarCtrl@@QAEXPAVWindow@@@Z                   	@1259	NONAME
	?SetPageSize@ScrollBar@@QAEHIH@Z                            	@1403	NONAME
	?SetParts@CStatusBarCtrl@@QAEHHPAH@Z                        	@1260	NONAME
	?SetPointer@AppWindow@@QAEXPAVPointer@@@Z                   	@1261	NONAME
	?SetPos@CProgressCtrl@@QAEHH@Z                              	@1262	NONAME
	?SetPos@CSpinButtonCtrl@@QAEHH@Z                            	@1263	NONAME
	?SetPosition@GaugeBox@@QAEXF@Z                              	@1264	NONAME
	?SetQuitOnLast@App@@QAEXH@Z                                 	@1416	NONAME
	?SetRange@CProgressCtrl@@QAEXHH@Z                           	@1265	NONAME
	?SetRange@CSpinButtonCtrl@@QAEXHH@Z                         	@1266	NONAME
	?SetRange@GaugeBox@@QAEXF@Z                                 	@1267	NONAME
	?SetRange@ScrollBar@@QAEXVRange@@@Z                         	@1268	NONAME
	?SetRows@CToolBarCtrl@@QAEXHHPAUtagRECT@@@Z                 	@1269	NONAME
	?SetSheetWizardButtons@CPropertyPage@@QAEXK@Z               	@1436	NONAME
	?SetSimple@CStatusBarCtrl@@QAEHH@Z                          	@1270	NONAME
	?SetSize@Bitmap@@QAEXVDimension@@@Z                         	@1271	NONAME
	?SetState@CToolBarCtrl@@QAEHHI@Z                            	@1272	NONAME
	?SetState@RadioButton@@QAEXH@Z                              	@1273	NONAME
	?SetStdStyle@BaseListBox@@QAEXW4ListBoxStyle@1@@Z           	@1274	NONAME
	?SetStdStyle@Edit@@QAEXW4EditStyle@1@@Z                     	@1275	NONAME
	?SetStdStyle@FixedText@@QAEXW4FixedTextStyle@1@@Z           	@1276	NONAME
	?SetStep@CProgressCtrl@@QAEHH@Z                             	@1277	NONAME
	?SetStrikethru@Font@@QAEXXZ                                 	@1278	NONAME
	?SetStrobe@Window@@QAEHPAVTimer@@@Z                         	@1279	NONAME
	?SetStyle@CImageListObject@@QAEXI@Z                         	@1280	NONAME
	?SetStyle@Control@@QAEXK@Z                                  	@1281	NONAME
	?SetStyle@Window@@QAEXKH@Z                                  	@1282	NONAME
	?SetTabSize@FmtTextObject@@QAEXI@Z                          	@1283	NONAME
	?SetTemplate@CStdFileDlg@@QAEXPAUHINSTANCE__@@PBD@Z         	@1284	NONAME
	?SetTemplate@CStdFileDlg@@QAEXPAX@Z                         	@1285	NONAME
	?SetText@CStatusBarCtrl@@QAEHPBDHH@Z                        	@1286	NONAME
	?SetText@EditWindow@@QAEXPBD@Z                              	@1287	NONAME
	?SetText@TextControl@@QAEXPBD@Z                             	@1288	NONAME
	?SetTextBkColor@CListViewCtrl@@QAEHK@Z                      	@1289	NONAME
	?SetTextColor@CListViewCtrl@@QAEHK@Z                        	@1290	NONAME
	?SetTextLimit@Edit@@QAEXI@Z                                 	@1291	NONAME
	?SetTextLimit@EditWindow@@QAEXI@Z                           	@1292	NONAME
	?SetThumbPos@ScrollBar@@QAEXH@Z                             	@1293	NONAME
	?SetToolInfo@CToolTipCtrl@@QAEXPAUtagTOOLINFOA@@@Z          	@1294	NONAME
	?SetToolRect@CToolTipCtrl@@QAEXPAVWindow@@IPBUtagRECT@@@Z   	@1295	NONAME
	?SetToolTips@CToolBarCtrl@@QAEXPAVCToolTipCtrl@@@Z          	@1296	NONAME
	?SetTop@BaseListBox@@QAEXI@Z                                	@1297	NONAME
	?SetType@MessBox@@QAEXH@Z                                   	@1298	NONAME
	?SetUnderline@Font@@QAEXXZ                                  	@1299	NONAME
	?SetUnit@ScrollBar@@QAEXI@Z                                 	@1300	NONAME
	?SetUp@PrintingDevice@@QAEHPAPAUtagDVTARGETDEVICE@@@Z       	@1301	NONAME
	?SetVariablePitch@Font@@QAEXXZ                              	@1302	NONAME
	?SetWizardButtons@CPropertySheet@@QAEXK@Z                   	@1303	NONAME
	?Show@CPropertyPage@@EAEXW4ShowState@@@Z                    	@1304	NONAME
	?Show@CPropertySheet@@UAEXW4ShowState@@@Z                   	@1305	NONAME
	?Show@CStdDialog@@QAEHXZ                                    	@1306	NONAME
	?Show@Control@@QAEXXZ                                       	@1307	NONAME
	?Show@Cursor@@QAEXXZ                                        	@1308	NONAME
	?Show@HelpDisplay@@QAEHK@Z                                  	@1309	NONAME
	?Show@HelpDisplay@@QAEHPBD@Z                                	@1310	NONAME
	?Show@MessBox@@QAE?AW4StdMessBoxReply@@XZ                   	@1311	NONAME
	?Show@Pointer@@QAEXXZ                                       	@1312	NONAME
	?Show@Window@@UAEXW4ShowState@@@Z                           	@1313	NONAME
	?SortChildren@CTreeViewCtrl@@QAEHPAU_TREEITEM@@@Z           	@1314	NONAME
	?SortChildrenCB@CTreeViewCtrl@@QAEHPAU_TV_SORTCB@@@Z        	@1437	NONAME
	?SortItems@CListViewCtrl@@QAEHP6GHJJJ@ZK@Z                  	@1316	NONAME
	?Start@Printer@@QAEXVRange@@@Z                              	@1317	NONAME
	?Start@Printer@@QAEXXZ                                      	@1318	NONAME
	?Start@Selection@@QAEAAJXZ                                  	@1319	NONAME
	?StartBanding@BandingPrinter@@QAEXVRange@@@Z                	@1320	NONAME
	?StartBanding@BandingPrinter@@QAEXXZ                        	@1321	NONAME
	?StepIt@CProgressCtrl@@QAEHXZ                               	@1322	NONAME
	?Stop@CAnimateCtrl@@QAEHXZ                                  	@1451	NONAME
	?Strobe@Window@@MAEXVStrobeEvt@@@Z                          	@1323	NONAME
	?SubItemHitTest@CListViewCtrl@@QAEHPAU_LV_HITTESTINFO@@@Z   	@1438	NONAME
	?TaskFind@CVLinked_List@@QAEPAXPAX@Z                        	@1324	NONAME
	?TextPrint@Window@@QAEXPBDVPoint@@@Z                        	@1325	NONAME
	?TextPrintf@Window@@QAAXPBDZZ                               	@1326	NONAME
	?TextPrintf@Window@@QAAXVPoint@@PBDZZ                       	@1327	NONAME
	?TextSize@Window@@QAE?AVDimension@@PBD@Z                    	@1328	NONAME
	?ToTop@Window@@QAEXXZ                                       	@1329	NONAME
	?Top@Rectangle@@QAEAAJXZ                                    	@1330	NONAME
	?Undo@Edit@@QAEHXZ                                          	@1331	NONAME
	?Undo@EditWindow@@QAEHXZ                                    	@1332	NONAME
	?Union@Rectangle@@QAE?AV1@AAV1@@Z                           	@1333	NONAME
	?Update@CListViewCtrl@@QAEHH@Z                              	@1334	NONAME
	?Update@Window@@QAEXXZ                                      	@1335	NONAME
	?UpdateCaption@Window@@QAEXPBD@Z                            	@1475	NONAME
	?UpdateTipText@CToolTipCtrl@@QAEXPBDPAVWindow@@I@Z          	@1336	NONAME
	?UpdateTipText@CToolTipCtrl@@QAEXVResID@@PAVWindow@@I@Z     	@1337	NONAME
	?UpperLeft@Rectangle@@QAE?AVPoint@@XZ                       	@1338	NONAME
	?Validate@FileListBox@@QAE?AW4FlbStatus@@PADH@Z             	@1339	NONAME
	?VertScroll@ControlWindow@@MAEXVScrollEvt@@@Z               	@1340	NONAME
	?VertScroll@Window@@MAEXVScrollEvt@@@Z                      	@1341	NONAME
	?WParam@Event@@QAEAAIXZ                                     	@1439	NONAME
	?Where@HelpRequestEvt@@QAE?AVPoint@@XZ                      	@1342	NONAME
	?Where@MouseEvt@@QAE?AVPoint@@XZ                            	@1343	NONAME
	?Width@Dimension@@QAEAAJXZ                                  	@1344	NONAME
	?WindowInit@Window@@MAEXVEvent@@@Z                          	@1345	NONAME
	?WindowRect@Window@@QAE?AVRectangle@@XZ                     	@1346	NONAME
	?X@Point@@QAEAAJXZ                                          	@1347	NONAME
	?Y@Point@@QAEAAJXZ                                          	@1348	NONAME
	?_Find@CVLinked_List@@IAEPAXPAX0@Z                          	@1349	NONAME
	?_Find@CVLinked_List@@IAEPAXPAX@Z                           	@1350	NONAME
	?gotFocus@ComboFocusChgEvt@@QAEHXZ                          	@1351	NONAME
	?gotFocus@EditFocusChgEvt@@QAEHXZ                           	@1352	NONAME
	?gotFocus@FocusChangeEvt@@QAEHXZ                            	@1353	NONAME
	?hasFocus@DrawItemEvt@@QAEHXZ                               	@1354	NONAME
	?isBold@Font@@QAEHXZ                                        	@1355	NONAME
	?isChecked@CheckBox@@QAEHXZ                                 	@1356	NONAME
	?isControlButton@MouseEvt@@QAEHXZ                           	@1357	NONAME
	?isDisabled@DrawItemEvt@@QAEHXZ                             	@1358	NONAME
	?isIconic@Window@@QAEHXZ                                    	@1359	NONAME
	?isItalic@Font@@QAEHXZ                                      	@1360	NONAME
	?isLeftButton@MouseEvt@@QAEHXZ                              	@1361	NONAME
	?isLight@Font@@QAEHXZ                                       	@1362	NONAME
	?isMiddleButton@MouseEvt@@QAEHXZ                            	@1363	NONAME
	?isModified@Edit@@QAEHXZ                                    	@1364	NONAME
	?isModified@EditWindow@@QAEHXZ                              	@1365	NONAME
	?isNormal@Font@@QAEHXZ                                      	@1366	NONAME
	?isPitchFixed@Font@@QAEHXZ                                  	@1367	NONAME
	?isPitchVariable@Font@@QAEHXZ                               	@1368	NONAME
	?isRightButton@MouseEvt@@QAEHXZ                             	@1369	NONAME
	?isSelected@DrawItemEvt@@QAEHXZ                             	@1370	NONAME
	?isShiftButton@MouseEvt@@QAEHXZ                             	@1371	NONAME
	?isStrikethru@Font@@QAEHXZ                                  	@1372	NONAME
	?isSystem@KeyEvt@@QAEHXZ                                    	@1373	NONAME
	?isUnderline@Font@@QAEHXZ                                   	@1374	NONAME
	?isValid@Printer@@QAEHXZ                                    	@1375	NONAME
	?isValid@PrintingDevice@@QAEHXZ                             	@1376	NONAME
	?isVisible@Window@@QAEHXZ                                   	@1377	NONAME
	?isWindowScroll@ScrollEvt@@QAEHXZ                           	@1378	NONAME
	?isZoomed@Window@@QAEHXZ                                    	@1379	NONAME
	?unCheckItem@Menu@@QAEHI@Z                                  	@1380	NONAME
	CVDebug                                                     	@1381	NONAME
	Ctl3dAutoSubclass                                           	@1412	NONAME
	Ctl3dColorChange                                            	@1411	NONAME
	Ctl3dEnabled                                                	@1410	NONAME
	Ctl3dRegister                                               	@1413	NONAME
	Ctl3dSubclassDlg                                            	@1409	NONAME
	Ctl3dUnregister                                             	@1414	NONAME
	_AppDelete                                                  	@1382	NONAME
	_AppImpFind                                                 	@1383	NONAME
	_AppInsert                                                  	@1384	NONAME
	_ControlDispatcher@16                                       	@1392	NONAME
	_CvDesktopDispatcher@16                                     	@1400	NONAME
	_CvMdiChildDispatcher@16                                    	@1393	NONAME
	_CvMdiFrameDispatcher@16                                    	@1394	NONAME
	_DialogDispatcher@16                                        	@1395	NONAME
	_EventDispatcher@16                                         	@1396	NONAME
	_GaugeBoxInit@4                                             	@1385	NONAME
	_MDIChildDispatcher@16                                      	@1397	NONAME
	_MdiDefChildDispatcher@16                                   	@1398	NONAME
	_PropSheetDispatcher@16                                     	@1408	NONAME
	?GetCtrlID@DrawItemEvt@@QAEHXZ                              	@1504	NONAME
	??0Bitmap@@QAE@PAUHBITMAP__@@H@Z                            	@1505	NONAME
	??0Brush@@QAE@PAUHBRUSH__@@H@Z                              	@1506	NONAME
	??0Font@@QAE@PAUHFONT__@@H@Z                                	@1507	NONAME
	??0Icon@@QAE@PAUHICON__@@H@Z                                	@1508	NONAME
	??0Menu@@QAE@PAUHMENU__@@H@Z                                	@1509	NONAME
	??0Pen@@QAE@PAUHPEN__@@H@Z                                  	@1510	NONAME
	??0Pointer@@QAE@PAUHICON__@@H@Z                             	@1511	NONAME
	?Detach@Bitmap@@QAEPAUHBITMAP__@@XZ                         	@1512	NONAME
	?Detach@Brush@@QAEPAUHBRUSH__@@XZ                           	@1513	NONAME
	?Detach@Font@@QAEPAUHFONT__@@XZ                             	@1514	NONAME
	?Detach@Icon@@QAEPAUHICON__@@XZ                             	@1515	NONAME
	?Detach@Menu@@QAEPAUHMENU__@@XZ                             	@1516	NONAME
	?Detach@Pen@@QAEPAUHPEN__@@XZ                               	@1517	NONAME
	?Detach@Pointer@@QAEPAUHICON__@@XZ                          	@1518	NONAME
	?DestroyWindow@Window@@QAEHXZ                               	@1519	NONAME
	?ForwardEvent@Control@@QAEJIIJ@Z                            	@1520	NONAME
	?ForwardEvent@Window@@QAEJIIJ@Z                             	@1521	NONAME
	?GetLogFont@Font@@QAEHPAPAUtagLOGFONTA@@@Z                  	@1522	NONAME
	?PostEvent@Control@@QAEXIIJ@Z                               	@1523	NONAME
	?PostEvent@Window@@QAEXIIJ@Z                                	@1524	NONAME
