DESCRIPTION     'TRiAS® Framework, Copyright© Hartmut Kaiser 1991 - 2005'

EXPORTS
	??0Accel@@QAE@PAUHACCEL__@@@Z                               	@1
	??0Accel@@QAE@VResID@@@Z                                    	@2
	??0App@@IAE@XZ                                              	@3
	??0AppWindow@@IAE@XZ                                        	@4
	??0AppWindow@@QAE@ABV0@@Z                                   	@5
	??0BandingPrinter@@IAE@PBDPAVPrintingDevice@@@Z             	@6
	??0BandingPrinter@@QAE@ABV0@@Z                              	@7
	??0BaseListBox@@QAE@PAVDialogWindow@@VResID@@@Z             	@8
	??0BaseListBox@@QAE@PAVWindow@@VCvID@@VPoint@@VDimension@@@Z	@9
	??0BaseListBox@@QAE@XZ                                      	@10
	??0Bitmap@@QAE@PAUHBITMAP__@@@Z                             	@11
	??0Bitmap@@QAE@PAUHBITMAP__@@H@Z                            	@12
	??0Bitmap@@QAE@VDimension@@HPAG@Z                           	@13
	??0Bitmap@@QAE@VResID@@@Z                                   	@14
	??0Bitmap@@QAE@VResID@@PAU_COLORMAP@@HI@Z                   	@15
	??0BitmapObject@@QAE@ABV0@@Z                                	@16
	??0BitmapObject@@QAE@VPoint@@VDimension@@PAVBitmap@@@Z      	@17
	??0Brush@@QAE@PAUHBRUSH__@@@Z                               	@18
	??0Brush@@QAE@PAUHBRUSH__@@H@Z                              	@19
	??0Brush@@QAE@PAVBitmap@@@Z                                 	@20
	??0Brush@@QAE@VColor@@W4StdHatchStyle@@@Z                   	@21
	??0Brush@@QAE@W4StdBrush@@@Z                                	@22
	??0Button@@IAE@PAVDialogWindow@@VResID@@@Z                  	@23
	??0Button@@IAE@PAVWindow@@VCvID@@VPoint@@VDimension@@PBD@Z  	@24
	??0Button@@IAE@XZ                                           	@25
	??0CAnimateCtrl@@QAE@PAVDialogWindow@@VResID@@@Z            	@26
	??0CAnimateCtrl@@QAE@PAVWindow@@VCvID@@VPoint@@VDimension@@K@Z	@27
	??0CClipboard@@QAE@XZ                                       	@28
	??0CDCExposeEvt@@QAE@XZ                                     	@29
	??0CDCWindow@@IAE@PAUHDC__@@AAVRectangle@@0@Z               	@30
	??0CDCWindow@@QAE@ABV0@@Z                                   	@31
	??0CImageList@@QAE@ABV0@@Z                                  	@32
	??0CImageList@@QAE@PAU_IMAGELIST@@H@Z                       	@33
	??0CImageList@@QAE@XZ                                       	@34
	??0CImageListObject@@QAE@ABV0@@Z                            	@35
	??0CImageListObject@@QAE@VPoint@@PAVCImageList@@HI@Z        	@36
	??0CListViewCtrl@@QAE@PAVDialogWindow@@VResID@@@Z           	@37
	??0CListViewCtrl@@QAE@PAVWindow@@VCvID@@VPoint@@VDimension@@K@Z	@38
	??0COpenDialog@@QAE@ABV0@@Z                                 	@39
	??0COpenDialog@@QAE@PAVWindow@@PAD@Z                        	@40
	??0CPolyPolygonObject@@QAE@ABV0@@Z                          	@41
	??0CPolyPolygonObject@@QAE@VPoint@@PBV1@PBHHPAVPen@@HPAVBrush@@@Z	@42
	??0CPolygonObject@@QAE@ABV0@@Z                              	@43
	??0CPolygonObject@@QAE@VPoint@@PBV1@HPAVPen@@HPAVBrush@@@Z  	@44
	??0CProgressCtrl@@QAE@PAVDialogWindow@@VResID@@@Z           	@45
	??0CProgressCtrl@@QAE@PAVWindow@@VCvID@@VPoint@@VDimension@@K@Z	@46
	??0CPropertyPage@@IAE@XZ                                    	@47
	??0CPropertyPage@@QAE@ABV0@@Z                               	@48
	??0CPropertyPage@@QAE@VResID@@PBD@Z                         	@49
	??0CPropertySheet@@QAE@ABV0@@Z                              	@50
	??0CPropertySheet@@QAE@PBDPAVWindow@@KI@Z                   	@51
	??0CSaveAsDialog@@QAE@ABV0@@Z                               	@52
	??0CSaveAsDialog@@QAE@PAVWindow@@PAD@Z                      	@53
	??0CSpinButtonCtrl@@QAE@PAVDialogWindow@@VResID@@@Z         	@54
	??0CSpinButtonCtrl@@QAE@PAVWindow@@VCvID@@VPoint@@VDimension@@K@Z	@55
	??0CStatusBarCtrl@@QAE@PAVDialogWindow@@VResID@@@Z          	@56
	??0CStatusBarCtrl@@QAE@PAVWindow@@VCvID@@VPoint@@VDimension@@K@Z	@57
	??0CStdColorDlg@@IAE@XZ                                     	@58
	??0CStdColorDlg@@QAE@ABV0@@Z                                	@59
	??0CStdDialog@@IAE@XZ                                       	@60
	??0CStdDialog@@QAE@ABV0@@Z                                  	@61
	??0CStdFileDlg@@IAE@XZ                                      	@62
	??0CStdFileDlg@@QAE@ABV0@@Z                                 	@63
	??0CToolBarCtrl@@QAE@PAVDialogWindow@@VResID@@@Z            	@64
	??0CToolBarCtrl@@QAE@PAVWindow@@VCvID@@VPoint@@VDimension@@K@Z	@65
	??0CToolTipCtrl@@QAE@PAVWindow@@@Z                          	@66
	??0CTreeViewCtrl@@QAE@PAVDialogWindow@@VResID@@@Z           	@67
	??0CTreeViewCtrl@@QAE@PAVWindow@@VCvID@@VPoint@@VDimension@@K@Z	@68
	??0CVFont@@QAE@PAUHFONT__@@@Z                               	@69
	??0CVFont@@QAE@PAUHFONT__@@H@Z                              	@70
	??0CVFont@@QAE@W4StdFamily@@VDimension@@PBD@Z               	@71
	??0CVFont@@QAE@W4StdFonts@@@Z                               	@72
	??0CVLink@@QAE@PAX0PAV0@@Z                                  	@73
	??0CVLinked_List@@QAE@XZ                                    	@74
	??0CVTable@@QAE@XZ                                          	@75
	??0CheckBox@@QAE@PAVDialogWindow@@VResID@@@Z                	@76
	??0CheckBox@@QAE@PAVWindow@@VCvID@@VPoint@@VDimension@@PBD@Z	@77
	??0ChildAppWindow@@IAE@PAVWindow@@IPADJ@Z                   	@78
	??0ChildAppWindow@@IAE@PAVWindow@@PADJ@Z                    	@79
	??0ChildAppWindow@@IAE@PAVWindow@@PAVAppWindow@@H@Z         	@80
	??0ChildAppWindow@@QAE@ABV0@@Z                              	@81
	??0Color@@QAE@EEE@Z                                         	@82
	??0Color@@QAE@W4Colors@@@Z                                  	@83
	??0Color@@QAE@XZ                                            	@84
	??0ComboBox@@QAE@PAVDialogWindow@@VResID@@@Z                	@85
	??0ComboBox@@QAE@PAVWindow@@VCvID@@VPoint@@VDimension@@W4ComboStyle@0@@Z	@86
	??0ComboFocusChgEvt@@QAE@XZ                                 	@87
	??0Control@@IAE@PAVDialogWindow@@VResID@@PBD@Z              	@88
	??0Control@@IAE@PAVWindow@@VCvID@@VPoint@@VDimension@@PBDK@Z	@89
	??0Control@@IAE@XZ                                          	@90
	??0ControlEvt@@QAE@XZ                                       	@91
	??0ControlWindow@@IAE@PAVControl@@@Z                        	@92
	??0ControlWindow@@IAE@XZ                                    	@93
	??0ControlWindow@@QAE@ABV0@@Z                               	@94
	??0Cursor@@QAE@PAVWindow@@PAVBitmap@@@Z                     	@95
	??0Cursor@@QAE@PAVWindow@@VDimension@@H@Z                   	@96
	??0CvID@@QAE@I@Z                                            	@97
	??0CvID@@QAE@PBD@Z                                          	@98
	??0DeleteItemEvt@@QAE@XZ                                    	@99
	??0DialogWindow@@IAE@PAVWindow@@VResID@@H@Z                 	@100
	??0DialogWindow@@IAE@XZ                                     	@101
	??0DialogWindow@@QAE@ABV0@@Z                                	@102
	??0Dimension@@QAE@JJ@Z                                      	@103
	??0Dimension@@QAE@XZ                                        	@104
	??0DrawItemEvt@@QAE@XZ                                      	@105
	??0DrawObject@@IAE@ABV0@@Z                                  	@106
	??0DrawObject@@IAE@VPoint@@@Z                               	@107
	??0DrawObject@@IAE@XZ                                       	@108
	??0Edit@@IAE@PAVDialogWindow@@VResID@@@Z                    	@109
	??0Edit@@IAE@PAVWindow@@VCvID@@VPoint@@VDimension@@@Z       	@110
	??0Edit@@IAE@XZ                                             	@111
	??0EditFocusChgEvt@@QAE@XZ                                  	@112
	??0EditWindow@@IAE@PAVDialogWindow@@VResID@@@Z              	@113
	??0EditWindow@@IAE@PAVWindow@@VCvID@@VPoint@@VDimension@@@Z 	@114
	??0EditWindow@@QAE@ABV0@@Z                                  	@115
	??0EllipseObject@@QAE@ABV0@@Z                               	@116
	??0EllipseObject@@QAE@VPoint@@VDimension@@PAVPen@@PAVBrush@@@Z	@117
	??0ErrorBox@@QAE@PBDPAVWindow@@@Z                           	@118
	??0Event@@QAE@IIJPAX@Z                                      	@119
	??0Event@@QAE@XZ                                            	@120
	??0EventContext@@IAE@XZ                                     	@121
	??0EventContext@@QAE@ABV0@@Z                                	@122
	??0ExposeEvt@@QAE@XZ                                        	@123
	??0FileListBox@@QAE@PAVDialogWindow@@VResID@@1@Z            	@124
	??0FixedIcon@@QAE@PAVDialogWindow@@VResID@@@Z               	@125
	??0FixedIcon@@QAE@PAVWindow@@VCvID@@VPoint@@VResID@@@Z      	@126
	??0FixedText@@QAE@PAVDialogWindow@@VResID@@@Z               	@127
	??0FixedText@@QAE@PAVWindow@@VCvID@@VPoint@@VDimension@@PBD@Z	@128
	??0FmtTextObject@@QAE@ABV0@@Z                               	@129
	??0FmtTextObject@@QAE@VPoint@@PBDPAVCVFont@@@Z              	@130
	??0FmtTextObject@@QAE@VPoint@@PBDVColor@@PAVCVFont@@@Z      	@131
	??0FocusChangeEvt@@QAE@XZ                                   	@132
	??0GaugeBox@@QAE@PAVDialogWindow@@VResID@@@Z                	@133
	??0GaugeBox@@QAE@PAVWindow@@VCvID@@VPoint@@VDimension@@PBD@Z	@134
	??0GroupBox@@QAE@PAVDialogWindow@@VResID@@@Z                	@135
	??0GroupBox@@QAE@PAVWindow@@VCvID@@VPoint@@VDimension@@PBD@Z	@136
	??0HelpDisplay@@QAE@PBD@Z                                   	@137
	??0HelpRequestEvt@@QAE@XZ                                   	@138
	??0HorizScrollBar@@QAE@PAVDialogWindow@@VResID@@@Z          	@139
	??0HorizScrollBar@@QAE@PAVWindow@@VCvID@@VPoint@@VDimension@@@Z	@140
	??0Icon@@QAE@PAUHICON__@@@Z                                 	@141
	??0Icon@@QAE@PAUHICON__@@H@Z                                	@142
	??0Icon@@QAE@VResID@@@Z                                     	@143
	??0Icon@@QAE@W4StdIcon@@@Z                                  	@144
	??0InfoBox@@QAE@PBD0PAVWindow@@@Z                           	@145
	??0KeyEvt@@QAE@XZ                                           	@146
	??0LineObject@@QAE@ABV0@@Z                                  	@147
	??0LineObject@@QAE@VPoint@@0PAVPen@@@Z                      	@148
	??0ListBox@@QAE@PAVDialogWindow@@VResID@@@Z                 	@149
	??0ListBox@@QAE@PAVWindow@@VCvID@@VPoint@@VDimension@@@Z    	@150
	??0ListBox@@QAE@XZ                                          	@151
	??0MeasureItemEvt@@QAE@XZ                                   	@152
	??0Menu@@IAE@PAX@Z                                          	@153
	??0Menu@@QAE@PAUHMENU__@@@Z                                 	@154
	??0Menu@@QAE@PAUHMENU__@@H@Z                                	@155
	??0Menu@@QAE@VResID@@@Z                                     	@156
	??0Menu@@QAE@XZ                                             	@157
	??0MenuCommandEvt@@QAE@XZ                                   	@158
	??0MenuInitEvt@@QAE@XZ                                      	@159
	??0MenuSelectEvt@@QAE@XZ                                    	@160
	??0MessBox@@QAE@PBD0PAVWindow@@@Z                           	@161
	??0ModeLessDialog@@IAE@PAVWindow@@VResID@@@Z                	@162
	??0ModeLessDialog@@QAE@ABV0@@Z                              	@163
	??0MouseEvt@@QAE@XZ                                         	@164
	??0MoveEvt@@QAE@XZ                                          	@165
	??0MultiLineEdit@@QAE@PAVDialogWindow@@VResID@@@Z           	@166
	??0MultiLineEdit@@QAE@PAVWindow@@VCvID@@VPoint@@VDimension@@@Z	@167
	??0MultiSelListBox@@QAE@PAVDialogWindow@@VResID@@@Z         	@168
	??0MultiSelListBox@@QAE@PAVWindow@@VCvID@@VPoint@@VDimension@@@Z	@169
	??0MultiSelListBox@@QAE@XZ                                  	@170
	??0MultiSelTabularListBox@@QAE@PAVDialogWindow@@VResID@@I@Z 	@171
	??0MultiSelTabularListBox@@QAE@PAVWindow@@VCvID@@VPoint@@VDimension@@I@Z	@172
	??0NotifyEvt@@QAE@XZ                                        	@173
	??0OwnerDrawEvt@@QAE@XZ                                     	@174
	??0Pair@@IAE@JJ@Z                                           	@175
	??0Pair@@IAE@XZ                                             	@176
	??0Pen@@QAE@PAUHPEN__@@@Z                                   	@177
	??0Pen@@QAE@PAUHPEN__@@H@Z                                  	@178
	??0Pen@@QAE@W4StdLineStyle@@IVColor@@@Z                     	@179
	??0Point@@QAE@JJ@Z                                          	@180
	??0Point@@QAE@XZ                                            	@181
	??0Pointer@@QAE@PAUHICON__@@@Z                              	@182
	??0Pointer@@QAE@PAUHICON__@@H@Z                             	@183
	??0Pointer@@QAE@PBDW4StdPointer@@@Z                         	@184
	??0Pointer@@QAE@VResID@@@Z                                  	@185
	??0Pointer@@QAE@W4StdPointer@@@Z                            	@186
	??0Printer@@IAE@PBDPAVPrintingDevice@@@Z                    	@187
	??0Printer@@QAE@ABV0@@Z                                     	@188
	??0PrinterErrorEvt@@QAE@XZ                                  	@189
	??0PrinterExposeEvt@@QAE@XZ                                 	@190
	??0PrintingDevice@@QAE@PBD@Z                                	@191
	??0PushButton@@QAE@PAVDialogWindow@@VResID@@@Z              	@192
	??0PushButton@@QAE@PAVWindow@@VCvID@@VPoint@@VDimension@@PBD@Z	@193
	??0RadioButton@@QAE@PAVDialogWindow@@VResID@@@Z             	@194
	??0RadioButton@@QAE@PAVWindow@@VCvID@@VPoint@@VDimension@@PBD@Z	@195
	??0Range@@QAE@JJ@Z                                          	@196
	??0Range@@QAE@XZ                                            	@197
	??0ReSizeEvt@@QAE@XZ                                        	@198
	??0Rectangle@@QAE@JJJJ@Z                                    	@199
	??0Rectangle@@QAE@VPoint@@0@Z                               	@200
	??0Rectangle@@QAE@VPoint@@VDimension@@@Z                    	@201
	??0Rectangle@@QAE@XZ                                        	@202
	??0RectangleObject@@QAE@ABV0@@Z                             	@203
	??0RectangleObject@@QAE@VPoint@@VDimension@@PAVPen@@PAVBrush@@@Z	@204
	??0ResID@@QAE@I@Z                                           	@205
	??0ResID@@QAE@IPAVResourceFile@@@Z                          	@206
	??0ResID@@QAE@PBDPAVResourceFile@@@Z                        	@207
	??0ResString@@QAE@ABV0@@Z                                   	@208
	??0ResString@@QAE@VResID@@I@Z                               	@209
	??0ResourceFile@@QAE@PBDH@Z                                 	@210
	??0ScrollBar@@IAE@XZ                                        	@211
	??0ScrollBar@@QAE@PAVDialogWindow@@VResID@@@Z               	@212
	??0ScrollBar@@QAE@PAVWindow@@VCvID@@VPoint@@VDimension@@@Z  	@213
	??0ScrollEvt@@QAE@XZ                                        	@214
	??0Selection@@QAE@JJ@Z                                      	@215
	??0Selection@@QAE@XZ                                        	@216
	??0ShapeObject@@QAE@ABV0@@Z                                 	@217
	??0ShapeObject@@QAE@VPoint@@VDimension@@PAVPen@@PAVBrush@@@Z	@218
	??0ShellWindow@@IAE@XZ                                      	@219
	??0ShellWindow@@QAE@ABV0@@Z                                 	@220
	??0SingleLineEdit@@QAE@PAVDialogWindow@@VResID@@@Z          	@221
	??0SingleLineEdit@@QAE@PAVWindow@@PAUHWND__@@@Z             	@222
	??0SingleLineEdit@@QAE@PAVWindow@@VCvID@@VPoint@@VDimension@@@Z	@223
	??0SysMenu@@IAE@PAVWindow@@@Z                               	@224
	??0SystemApp@@QAE@IPAUHINSTANCE__@@0PBDH@Z                  	@225
	??0TabularListBox@@QAE@PAVDialogWindow@@VResID@@I@Z         	@226
	??0TabularListBox@@QAE@PAVWindow@@VCvID@@VPoint@@VDimension@@I@Z	@227
	??0TextControl@@IAE@PAVDialogWindow@@VResID@@@Z             	@228
	??0TextControl@@IAE@PAVWindow@@VCvID@@VPoint@@VDimension@@@Z	@229
	??0TextControl@@IAE@XZ                                      	@230
	??0TextObject@@QAE@ABV0@@Z                                  	@231
	??0TextObject@@QAE@VPoint@@PBDPAVCVFont@@@Z                 	@232
	??0TextObject@@QAE@VPoint@@PBDVColor@@PAVCVFont@@@Z         	@233
	??0ToolTipEvt@@QAE@XZ                                       	@234
	??0TopAppWindow@@IAE@JPBD@Z                                 	@235
	??0TopAppWindow@@IAE@PAVAppWindow@@@Z                       	@236
	??0TopAppWindow@@QAE@ABV0@@Z                                	@237
	??0VertScrollBar@@QAE@PAVDialogWindow@@VResID@@@Z           	@238
	??0VertScrollBar@@QAE@PAVWindow@@VCvID@@VPoint@@VDimension@@@Z	@239
	??0WarningBox@@QAE@PBD0PAVWindow@@@Z                        	@240
	??0Window@@IAE@XZ                                           	@241
	??0Window@@QAE@ABV0@@Z                                      	@242
	??0Window@@QAE@PAUHWND__@@@Z                                	@243
	??0WndHorzScrollBar@@QAE@PAVWindow@@@Z                      	@244
	??0WndVertScrollBar@@QAE@PAVWindow@@@Z                      	@245
	??1Accel@@QAE@XZ                                            	@246
	??1App@@QAE@XZ                                              	@247
	??1AppWindow@@UAE@XZ                                        	@248
	??1BandingPrinter@@UAE@XZ                                   	@249
	??1BaseListBox@@QAE@XZ                                      	@250
	??1Bitmap@@QAE@XZ                                           	@251
	??1BitmapObject@@UAE@XZ                                     	@252
	??1Brush@@QAE@XZ                                            	@253
	??1Button@@QAE@XZ                                           	@254
	??1CAnimateCtrl@@QAE@XZ                                     	@255
	??1CClipboard@@QAE@XZ                                       	@256
	??1CDCWindow@@UAE@XZ                                        	@257
	??1CImageList@@UAE@XZ                                       	@258
	??1CImageListObject@@UAE@XZ                                 	@259
	??1CListViewCtrl@@QAE@XZ                                    	@260
	??1COpenDialog@@UAE@XZ                                      	@261
	??1CPolyPolygonObject@@UAE@XZ                               	@262
	??1CPolygonObject@@UAE@XZ                                   	@263
	??1CProgressCtrl@@QAE@XZ                                    	@264
	??1CPropertyPage@@UAE@XZ                                    	@265
	??1CPropertySheet@@UAE@XZ                                   	@266
	??1CSaveAsDialog@@UAE@XZ                                    	@267
	??1CSpinButtonCtrl@@QAE@XZ                                  	@268
	??1CStatusBarCtrl@@QAE@XZ                                   	@269
	??1CStdColorDlg@@UAE@XZ                                     	@270
	??1CStdDialog@@UAE@XZ                                       	@271
	??1CStdFileDlg@@UAE@XZ                                      	@272
	??1CToolBarCtrl@@QAE@XZ                                     	@273
	??1CToolTipCtrl@@QAE@XZ                                     	@274
	??1CTreeViewCtrl@@QAE@XZ                                    	@275
	??1CVFont@@QAE@XZ                                           	@276
	??1CVLink@@QAE@XZ                                           	@277
	??1CheckBox@@QAE@XZ                                         	@278
	??1ChildAppWindow@@UAE@XZ                                   	@279
	??1ComboBox@@QAE@XZ                                         	@280
	??1Control@@QAE@XZ                                          	@281
	??1ControlWindow@@UAE@XZ                                    	@282
	??1Cursor@@QAE@XZ                                           	@283
	??1DialogWindow@@UAE@XZ                                     	@284
	??1DrawObject@@UAE@XZ                                       	@285
	??1Edit@@QAE@XZ                                             	@286
	??1EditWindow@@UAE@XZ                                       	@287
	??1EllipseObject@@UAE@XZ                                    	@288
	??1ErrorBox@@QAE@XZ                                         	@289
	??1EventContext@@MAE@XZ                                     	@290
	??1FileListBox@@QAE@XZ                                      	@291
	??1FixedIcon@@QAE@XZ                                        	@292
	??1FixedText@@QAE@XZ                                        	@293
	??1FmtTextObject@@UAE@XZ                                    	@294
	??1GaugeBox@@QAE@XZ                                         	@295
	??1GroupBox@@QAE@XZ                                         	@296
	??1HelpDisplay@@QAE@XZ                                      	@297
	??1HorizScrollBar@@QAE@XZ                                   	@298
	??1Icon@@QAE@XZ                                             	@299
	??1InfoBox@@QAE@XZ                                          	@300
	??1LineObject@@UAE@XZ                                       	@301
	??1ListBox@@QAE@XZ                                          	@302
	??1Menu@@QAE@XZ                                             	@303
	??1MessBox@@QAE@XZ                                          	@304
	??1ModeLessDialog@@UAE@XZ                                   	@305
	??1MultiLineEdit@@QAE@XZ                                    	@306
	??1MultiSelListBox@@QAE@XZ                                  	@307
	??1MultiSelTabularListBox@@QAE@XZ                           	@308
	??1Pen@@QAE@XZ                                              	@309
	??1Pointer@@QAE@XZ                                          	@310
	??1Printer@@UAE@XZ                                          	@311
	??1PrintingDevice@@QAE@XZ                                   	@312
	??1PushButton@@QAE@XZ                                       	@313
	??1RadioButton@@QAE@XZ                                      	@314
	??1RectangleObject@@UAE@XZ                                  	@315
	??1ResString@@QAE@XZ                                        	@316
	??1ResourceFile@@QAE@XZ                                     	@317
	??1ScrollBar@@QAE@XZ                                        	@318
	??1ShapeObject@@UAE@XZ                                      	@319
	??1ShellWindow@@UAE@XZ                                      	@320
	??1SingleLineEdit@@QAE@XZ                                   	@321
	??1SysMenu@@QAE@XZ                                          	@322
	??1TabularListBox@@QAE@XZ                                   	@323
	??1TextControl@@QAE@XZ                                      	@324
	??1TextObject@@UAE@XZ                                       	@325
	??1TopAppWindow@@UAE@XZ                                     	@326
	??1VertScrollBar@@QAE@XZ                                    	@327
	??1WarningBox@@QAE@XZ                                       	@328
	??1Window@@UAE@XZ                                           	@329
	??1WndHorzScrollBar@@QAE@XZ                                 	@330
	??1WndVertScrollBar@@QAE@XZ                                 	@331
	??4Accel@@QAEAAV0@ABV0@@Z                                   	@332
	??4AppWindow@@QAEAAV0@ABV0@@Z                               	@333
	??4BandingPrinter@@QAEAAV0@ABV0@@Z                          	@334
	??4BaseListBox@@QAEAAV0@ABV0@@Z                             	@335
	??4Bitmap@@QAEAAV0@ABV0@@Z                                  	@336
	??4BitmapObject@@QAEAAV0@ABV0@@Z                            	@337
	??4Brush@@QAEAAV0@ABV0@@Z                                   	@338
	??4Button@@QAEAAV0@ABV0@@Z                                  	@339
	??4CAnimateCtrl@@QAEAAV0@ABV0@@Z                            	@340
	??4CClipboard@@QAEAAV0@ABV0@@Z                              	@341
	??4CDCExposeEvt@@QAEAAV0@ABV0@@Z                            	@342
	??4CDCWindow@@QAEAAV0@ABV0@@Z                               	@343
	??4CImageList@@QAEAAV0@ABV0@@Z                              	@344
	??4CImageListObject@@QAEAAV0@ABV0@@Z                        	@345
	??4CListViewCtrl@@QAEAAV0@ABV0@@Z                           	@346
	??4COpenDialog@@QAEAAV0@ABV0@@Z                             	@347
	??4CPolyPolygonObject@@QAEAAV0@ABV0@@Z                      	@348
	??4CPolygonObject@@QAEAAV0@ABV0@@Z                          	@349
	??4CProgressCtrl@@QAEAAV0@ABV0@@Z                           	@350
	??4CPropertyPage@@QAEAAV0@ABV0@@Z                           	@351
	??4CPropertySheet@@QAEAAV0@ABV0@@Z                          	@352
	??4CSaveAsDialog@@QAEAAV0@ABV0@@Z                           	@353
	??4CSpinButtonCtrl@@QAEAAV0@ABV0@@Z                         	@354
	??4CStatusBarCtrl@@QAEAAV0@ABV0@@Z                          	@355
	??4CStdColorDlg@@QAEAAV0@ABV0@@Z                            	@356
	??4CStdDialog@@QAEAAV0@ABV0@@Z                              	@357
	??4CStdFileDlg@@QAEAAV0@ABV0@@Z                             	@358
	??4CToolBarCtrl@@QAEAAV0@ABV0@@Z                            	@359
	??4CToolTipCtrl@@QAEAAV0@ABV0@@Z                            	@360
	??4CTreeViewCtrl@@QAEAAV0@ABV0@@Z                           	@361
	??4CVFont@@QAEAAV0@ABV0@@Z                                  	@362
	??4CVLink@@QAEAAV0@ABV0@@Z                                  	@363
	??4CVLinked_List@@QAEAAV0@ABV0@@Z                           	@364
	??4CVTable@@QAEAAV0@ABV0@@Z                                 	@365
	??4CheckBox@@QAEAAV0@ABV0@@Z                                	@366
	??4ChildAppWindow@@QAEAAV0@ABV0@@Z                          	@367
	??4Color@@QAEAAV0@ABV0@@Z                                   	@368
	??4ComboBox@@QAEAAV0@ABV0@@Z                                	@369
	??4ComboFocusChgEvt@@QAEAAV0@ABV0@@Z                        	@370
	??4Control@@QAEAAV0@ABV0@@Z                                 	@371
	??4ControlEvt@@QAEAAV0@ABV0@@Z                              	@372
	??4ControlWindow@@QAEAAV0@ABV0@@Z                           	@373
	??4Cursor@@QAEAAV0@ABV0@@Z                                  	@374
	??4CvID@@QAEAAV0@ABV0@@Z                                    	@375
	??4DeleteItemEvt@@QAEAAV0@ABV0@@Z                           	@376
	??4DialogWindow@@QAEAAV0@ABV0@@Z                            	@377
	??4Dimension@@QAEAAV0@ABV0@@Z                               	@378
	??4DrawItemEvt@@QAEAAV0@ABV0@@Z                             	@379
	??4DrawObject@@IAEAAV0@ABV0@@Z                              	@380
	??4Edit@@QAEAAV0@ABV0@@Z                                    	@381
	??4EditFocusChgEvt@@QAEAAV0@ABV0@@Z                         	@382
	??4EditWindow@@QAEAAV0@ABV0@@Z                              	@383
	??4EllipseObject@@QAEAAV0@ABV0@@Z                           	@384
	??4ErrorBox@@QAEAAV0@ABV0@@Z                                	@385
	??4Event@@QAEAAV0@ABV0@@Z                                   	@386
	??4EventContext@@QAEAAV0@ABV0@@Z                            	@387
	??4ExposeEvt@@QAEAAV0@ABV0@@Z                               	@388
	??4FileListBox@@QAEAAV0@ABV0@@Z                             	@389
	??4FixedIcon@@QAEAAV0@ABV0@@Z                               	@390
	??4FixedText@@QAEAAV0@ABV0@@Z                               	@391
	??4FmtTextObject@@QAEAAV0@ABV0@@Z                           	@392
	??4FocusChangeEvt@@QAEAAV0@ABV0@@Z                          	@393
	??4GaugeBox@@QAEAAV0@ABV0@@Z                                	@394
	??4GroupBox@@QAEAAV0@ABV0@@Z                                	@395
	??4HelpDisplay@@QAEAAV0@ABV0@@Z                             	@396
	??4HelpRequestEvt@@QAEAAV0@ABV0@@Z                          	@397
	??4HorizScrollBar@@QAEAAV0@ABV0@@Z                          	@398
	??4Icon@@QAEAAV0@ABV0@@Z                                    	@399
	??4InfoBox@@QAEAAV0@ABV0@@Z                                 	@400
	??4KeyEvt@@QAEAAV0@ABV0@@Z                                  	@401
	??4LineObject@@QAEAAV0@ABV0@@Z                              	@402
	??4ListBox@@QAEAAV0@ABV0@@Z                                 	@403
	??4MeasureItemEvt@@QAEAAV0@ABV0@@Z                          	@404
	??4Menu@@QAEAAV0@ABV0@@Z                                    	@405
	??4MenuCommandEvt@@QAEAAV0@ABV0@@Z                          	@406
	??4MenuInitEvt@@QAEAAV0@ABV0@@Z                             	@407
	??4MenuSelectEvt@@QAEAAV0@ABV0@@Z                           	@408
	??4MessBox@@QAEAAV0@ABV0@@Z                                 	@409
	??4ModeLessDialog@@QAEAAV0@ABV0@@Z                          	@410
	??4MouseEvt@@QAEAAV0@ABV0@@Z                                	@411
	??4MoveEvt@@QAEAAV0@ABV0@@Z                                 	@412
	??4MultiLineEdit@@QAEAAV0@ABV0@@Z                           	@413
	??4MultiSelListBox@@QAEAAV0@ABV0@@Z                         	@414
	??4MultiSelTabularListBox@@QAEAAV0@ABV0@@Z                  	@415
	??4NotifyEvt@@QAEAAV0@ABV0@@Z                               	@416
	??4OwnerDrawEvt@@QAEAAV0@ABV0@@Z                            	@417
	??4Pair@@QAEAAV0@ABV0@@Z                                    	@418
	??4Pen@@QAEAAV0@ABV0@@Z                                     	@419
	??4Point@@QAEAAV0@ABV0@@Z                                   	@420
	??4Pointer@@QAEAAV0@ABV0@@Z                                 	@421
	??4Printer@@QAEAAV0@ABV0@@Z                                 	@422
	??4PrinterErrorEvt@@QAEAAV0@ABV0@@Z                         	@423
	??4PrinterExposeEvt@@QAEAAV0@ABV0@@Z                        	@424
	??4PrintingDevice@@QAEAAV0@ABV0@@Z                          	@425
	??4PushButton@@QAEAAV0@ABV0@@Z                              	@426
	??4RadioButton@@QAEAAV0@ABV0@@Z                             	@427
	??4Range@@QAEAAV0@ABV0@@Z                                   	@428
	??4ReSizeEvt@@QAEAAV0@ABV0@@Z                               	@429
	??4Rectangle@@QAEAAV0@ABV0@@Z                               	@430
	??4RectangleObject@@QAEAAV0@ABV0@@Z                         	@431
	??4ResID@@QAEAAV0@ABV0@@Z                                   	@432
	??4ResString@@QAEAAV0@ABV0@@Z                               	@433
	??4ResourceFile@@QAEAAV0@ABV0@@Z                            	@434
	??4ScrollBar@@QAEAAV0@ABV0@@Z                               	@435
	??4ScrollEvt@@QAEAAV0@ABV0@@Z                               	@436
	??4Selection@@QAEAAV0@ABV0@@Z                               	@437
	??4ShapeObject@@QAEAAV0@ABV0@@Z                             	@438
	??4ShellWindow@@QAEAAV0@ABV0@@Z                             	@439
	??4SingleLineEdit@@QAEAAV0@ABV0@@Z                          	@440
	??4SysMenu@@QAEAAV0@ABV0@@Z                                 	@441
	??4TabularListBox@@QAEAAV0@ABV0@@Z                          	@442
	??4TextControl@@QAEAAV0@ABV0@@Z                             	@443
	??4TextObject@@QAEAAV0@ABV0@@Z                              	@444
	??4ToolTipEvt@@QAEAAV0@ABV0@@Z                              	@445
	??4TopAppWindow@@QAEAAV0@ABV0@@Z                            	@446
	??4VertScrollBar@@QAEAAV0@ABV0@@Z                           	@447
	??4WarningBox@@QAEAAV0@ABV0@@Z                              	@448
	??4Window@@QAEAAV0@ABV0@@Z                                  	@449
	??4WndHorzScrollBar@@QAEAAV0@ABV0@@Z                        	@450
	??4WndVertScrollBar@@QAEAAV0@ABV0@@Z                        	@451
	??8CvID@@QAEHAAV0@@Z                                        	@452
	??8CvID@@QAEHI@Z                                            	@453
	??8CvID@@QAEHPBD@Z                                          	@454
	??BCvID@@QAEIXZ                                             	@455
	??BCvID@@QAEPBDXZ                                           	@456
	??BResString@@QAEPBDXZ                                      	@457
	??_7AppWindow@@6B@                                          	@458
	??_7BandingPrinter@@6B@                                     	@459
	??_7BitmapObject@@6B@                                       	@460
	??_7CDCWindow@@6B@                                          	@461
	??_7CImageList@@6B@                                         	@462
	??_7CImageListObject@@6B@                                   	@463
	??_7COpenDialog@@6B@                                        	@464
	??_7CPolyPolygonObject@@6B@                                 	@465
	??_7CPolygonObject@@6B@                                     	@466
	??_7CPropertyPage@@6B@                                      	@467
	??_7CPropertySheet@@6B@                                     	@468
	??_7CSaveAsDialog@@6B@                                      	@469
	??_7CStdColorDlg@@6B@                                       	@470
	??_7CStdDialog@@6B@                                         	@471
	??_7CStdFileDlg@@6B@                                        	@472
	??_7ChildAppWindow@@6B@                                     	@473
	??_7ControlWindow@@6B@                                      	@474
	??_7DialogWindow@@6B@                                       	@475
	??_7DrawObject@@6B@                                         	@476
	??_7EditWindow@@6B@                                         	@477
	??_7EllipseObject@@6B@                                      	@478
	??_7EventContext@@6B@                                       	@479
	??_7FmtTextObject@@6B@                                      	@480
	??_7LineObject@@6B@                                         	@481
	??_7ModeLessDialog@@6B@                                     	@482
	??_7Printer@@6B@                                            	@483
	??_7RectangleObject@@6B@                                    	@484
	??_7ShapeObject@@6B@                                        	@485
	??_7ShellWindow@@6B@                                        	@486
	??_7TextObject@@6B@                                         	@487
	??_7TopAppWindow@@6B@                                       	@488
	??_7Window@@6B@                                             	@489
	??_FBandingPrinter@@QAEXXZ                                  	@490
	??_FBrush@@QAEXXZ                                           	@491
	??_FIcon@@QAEXXZ                                            	@492
	??_FPointer@@QAEXXZ                                         	@493
	??_FPrinter@@QAEXXZ                                         	@494
	??_FPrintingDevice@@QAEXXZ                                  	@495
	??_FTopAppWindow@@QAEXXZ                                    	@496
	?ASCIIChar@KeyEvt@@QAEDXZ                                   	@497
	?Abort@Printer@@QAEXXZ                                      	@498
	?Activate@CToolTipCtrl@@QAEXH@Z                             	@499
	?Activate@Window@@MAEXVEvent@@@Z                            	@500
	?Add@CImageList@@QAEHPAVBitmap@@0@Z                         	@501
	?Add@CImageList@@QAEHPAVBitmap@@K@Z                         	@502
	?Add@CImageList@@QAEHPAVIcon@@@Z                            	@503
	?AddBitmap@CToolBarCtrl@@QAEHHPAVBitmap@@@Z                 	@504
	?AddBitmap@CToolBarCtrl@@QAEHHVResID@@@Z                    	@505
	?AddButtons@CToolBarCtrl@@QAEHHPAU_TBBUTTON@@@Z             	@506
	?AddExtentEntry@BaseListBox@@QAEKPBD@Z                      	@1359
	?AddFlags@CStdFileDlg@@QAEXJ@Z                              	@507
	?AddPage@CPropertySheet@@QAEIPAU_PSP@@@Z                    	@508
	?AddPage@CPropertySheet@@QAEIPAVCPropertyPage@@@Z           	@509
	?AddRow@MultiSelTabularListBox@@QAAHHZZ                     	@510
	?AddRow@TabularListBox@@QAAHHZZ                             	@511
	?AddString@BaseListBox@@QAEHPBDH@Z                          	@512
	?AddString@CToolBarCtrl@@QAEHVResID@@@Z                     	@513
	?AddStrings@CToolBarCtrl@@QAEHPBD@Z                         	@514
	?AddTool@CToolTipCtrl@@QAEHPAVWindow@@PBDPBUtagRECT@@I@Z    	@515
	?AddTool@CToolTipCtrl@@QAEHPAVWindow@@VResID@@PBUtagRECT@@I@Z	@516
	?Addr@ResString@@QAEPBDXZ                                   	@517
	?AppendItem@Menu@@QAEHIPAVBitmap@@@Z                        	@518
	?AppendItem@Menu@@QAEHIPBD@Z                                	@519
	?AppendItem@Menu@@QAEHPAV1@PBD@Z                            	@520
	?AppendSeparator@Menu@@QAEHXZ                               	@521
	?ApproximateViewRect@CListViewCtrl@@QAEKHHH@Z               	@522
	?Arrange@CListViewCtrl@@QAEHI@Z                             	@523
	?Arrange@ShellWindow@@QAEXW4ArrangeStyle@1@@Z               	@524
	?Attach@CImageList@@QAEHPAU_IMAGELIST@@@Z                   	@525
	?AttachIdleProc@App@@QAEP6AHJ@ZP6AHJ@Z@Z                    	@526
	?AttachPreTranslateProc@App@@QAEP6AHPAUtagMSG@@@ZP6AH0@Z@Z  	@527
	?AutoSize@CToolBarCtrl@@QAEXXZ                              	@528
	?BeginDrag@CImageList@@QAEHHVPoint@@@Z                      	@529
	?Blue@Color@@QAEAAEXZ                                       	@530
	?Bottom@Rectangle@@QAEAAJXZ                                 	@531
	?BoundingBox@BitmapObject@@UAE?AVRectangle@@XZ              	@532
	?BoundingBox@DrawObject@@UAE?AVRectangle@@XZ                	@533
	?BoundingBox@LineObject@@UAE?AVRectangle@@XZ                	@534
	?BoundingBox@ShapeObject@@UAE?AVRectangle@@XZ               	@535
	?BoundingBox@TextObject@@UAE?AVRectangle@@XZ                	@536
	?ButtonClick@Window@@MAEXVControlEvt@@@Z                    	@537
	?ButtonDblClk@Window@@MAEXVControlEvt@@@Z                   	@538
	?ButtonID@MouseEvt@@QAE?AW4Buttons@@XZ                      	@539
	?CallAppExec@@YAHW4ExecType@@@Z                             	@540
	?CanUndo@Edit@@QAEHXZ                                       	@541
	?CancelStrobe@Window@@QAEHPAVTimer@@@Z                      	@542
	?CancelToClose@CPropertyPage@@QAEXXZ                        	@543
	?CanvasErase@Window@@QAEXAAVRectangle@@@Z                   	@544
	?CanvasErase@Window@@QAEXXZ                                 	@545
	?CanvasRect@Window@@QAE?AVRectangle@@XZ                     	@546
	?CentreWindow@@YAXPAUHWND__@@0@Z                            	@547
	?CentreWindow@@YAXPAVWindow@@0@Z                            	@548
	?ChangeAccel@Window@@QAEPAVAccel@@PAV2@@Z                   	@549
	?ChangeBackground@Control@@QAEPAVBrush@@PAV2@@Z             	@550
	?ChangeBackground@Window@@QAEPAVBrush@@PAV2@@Z              	@551
	?ChangeBlinkTime@Cursor@@QAEXI@Z                            	@552
	?ChangeBrush@ShapeObject@@QAEPAVBrush@@PAV2@@Z              	@553
	?ChangeBrush@Window@@QAEPAVBrush@@PAV2@@Z                   	@554
	?ChangeCurrentIndex@ListBox@@QAEHH@Z                        	@555
	?ChangeEditSelection@ComboBox@@QAEXVSelection@@@Z           	@556
	?ChangeFont@DialogWindow@@QAEPAVCVFont@@PAV2@H@Z            	@557
	?ChangeFont@TextControl@@QAEPAVCVFont@@PAV2@H@Z             	@558
	?ChangeFont@Window@@QAEPAVCVFont@@PAV2@@Z                   	@559
	?ChangeMenuA@Window@@QAEPAVMenu@@PAV2@@Z                    	@560
	?ChangePen@LineObject@@QAEPAVPen@@PAV2@@Z                   	@561
	?ChangePen@ShapeObject@@QAEPAVPen@@PAV2@@Z                  	@562
	?ChangePen@Window@@QAEPAVPen@@PAV2@@Z                       	@563
	?ChangePointer@Window@@QAEPAVPointer@@PAV2@@Z               	@564
	?ChangePos@Cursor@@QAEXVPoint@@@Z                           	@565
	?ChangePos@Pointer@@QAEXVPoint@@@Z                          	@566
	?ChangePosition@Control@@QAE?AVPoint@@V2@@Z                 	@567
	?ChangePosition@ControlWindow@@QAE?AVPoint@@V2@@Z           	@568
	?ChangePosition@DrawObject@@UAE?AVPoint@@V2@@Z              	@569
	?ChangePosition@LineObject@@UAE?AVPoint@@V2@@Z              	@570
	?ChangePosition@Window@@QAE?AVPoint@@V2@@Z                  	@571
	?ChangeRop@DrawObject@@UAE?AW4RopType@@W42@@Z               	@572
	?ChangeSelected@MultiSelListBox@@QAEHHH@Z                   	@573
	?ChangeSelected@MultiSelListBox@@QAEHVRange@@H@Z            	@574
	?ChangeSelection@Edit@@QAEXVSelection@@@Z                   	@575
	?ChangeSelection@EditWindow@@QAEXVSelection@@@Z             	@576
	?ChangeSize@BitmapObject@@UAE?AVDimension@@V2@@Z            	@577
	?ChangeSize@Control@@QAE?AVDimension@@V2@@Z                 	@578
	?ChangeSize@ControlWindow@@QAE?AVDimension@@V2@@Z           	@579
	?ChangeSize@DrawObject@@UAE?AVDimension@@V2@@Z              	@580
	?ChangeSize@LineObject@@UAE?AVDimension@@V2@@Z              	@581
	?ChangeSize@ShapeObject@@UAE?AVDimension@@V2@@Z             	@582
	?ChangeSize@Window@@QAE?AVDimension@@V2@@Z                  	@583
	?ChangeTextColor@TextControl@@QAE?AVColor@@V2@@Z            	@584
	?CheckButton@CToolBarCtrl@@QAEHHH@Z                         	@585
	?CheckItem@Menu@@QAEHI@Z                                    	@586
	?Clear@BaseListBox@@QAEXXZ                                  	@587
	?Clear@CClipboard@@QAEXXZ                                   	@588
	?ClearSelected@MultiSelListBox@@QAEHXZ                      	@589
	?Close@CAnimateCtrl@@QAEHXZ                                 	@590
	?Close@Window@@MAEXVEvent@@@Z                               	@591
	?CommandToIndex@CToolBarCtrl@@QAEII@Z                       	@592
	?CompareItem@Window@@MAEHVOwnerDrawEvt@@PAX1@Z              	@593
	?Confine@Pointer@@QAEXVRectangle@@@Z                        	@594
	?CreateDragImage@CListViewCtrl@@QAEPAVCImageList@@HPAUtagPOINT@@@Z	@595
	?CreateDragImage@CTreeViewCtrl@@QAEPAVCImageList@@PAU_TREEITEM@@@Z	@596
	?CreateList@CImageList@@QAEHAAV1@H0HHH@Z                    	@597
	?CreateList@CImageList@@QAEHHHHHH@Z                         	@598
	?CreateList@CImageList@@QAEHVResID@@HHK@Z                   	@599
	?CreatePage@CPropertyPage@@IAEPAU_PSP@@XZ                   	@600
	?Customize@CToolBarCtrl@@QAEXXZ                             	@601
	?DeActivate@Window@@MAEXVEvent@@@Z                          	@602
	?Default@EventContext@@MAEXVEvent@@@Z                       	@603
	?DelString@BaseListBox@@QAEHH@Z                             	@604
	?DelTool@CToolTipCtrl@@QAEXPAVWindow@@I@Z                   	@605
	?Delete@CVLinked_List@@QAEXPAX0@Z                           	@606
	?Delete@CVLinked_List@@QAEXPAX@Z                            	@607
	?Delete@CVLinked_List@@QAEXXZ                               	@608
	?DeleteAllItems@CListViewCtrl@@QAEHXZ                       	@609
	?DeleteAllItems@CTreeViewCtrl@@QAEHXZ                       	@610
	?DeleteButton@CToolBarCtrl@@QAEHH@Z                         	@611
	?DeleteColumn@CListViewCtrl@@QAEHH@Z                        	@612
	?DeleteEditSelected@ComboBox@@QAEXH@Z                       	@613
	?DeleteImageList@CImageList@@QAEHXZ                         	@614
	?DeleteItem@CListViewCtrl@@QAEHH@Z                          	@615
	?DeleteItem@CTreeViewCtrl@@QAEHPAU_TREEITEM@@@Z             	@616
	?DeleteItem@Menu@@QAEHI@Z                                   	@617
	?DeleteItem@Menu@@QAEHPAV1@@Z                               	@618
	?DeleteItem@Window@@MAEHVDeleteItemEvt@@@Z                  	@619
	?DeleteSelected@Edit@@QAEXH@Z                               	@620
	?DeleteSelected@EditWindow@@QAEXH@Z                         	@621
	?DestroyWindow@Window@@QAEHXZ                               	@622
	?Detach@Bitmap@@QAEPAUHBITMAP__@@XZ                         	@623
	?Detach@Brush@@QAEPAUHBRUSH__@@XZ                           	@624
	?Detach@CImageList@@QAEPAU_IMAGELIST@@XZ                    	@625
	?Detach@CVFont@@QAEPAUHFONT__@@XZ                           	@626
	?Detach@Icon@@QAEPAUHICON__@@XZ                             	@627
	?Detach@Menu@@QAEPAUHMENU__@@XZ                             	@628
	?Detach@Pen@@QAEPAUHPEN__@@XZ                               	@629
	?Detach@Pointer@@QAEPAUHICON__@@XZ                          	@630
	?Detach@Window@@QAEPAUHWND__@@XZ                            	@631
	?DetachIdleProc@App@@QAEP6AHJ@ZXZ                           	@632
	?DetachPreTranslateProc@App@@QAEP6AHPAUtagMSG@@@ZXZ         	@633
	?DeviceMode@PrintingDevice@@QAEPBU_devicemodeA@@XZ          	@634
	?DeviceName@PrintingDevice@@QAEPBDXZ                        	@635
	?Disable@Control@@QAEXXZ                                    	@636
	?Disable@ControlWindow@@QAEXXZ                              	@637
	?Disable@Window@@QAEXXZ                                     	@638
	?DisableItem@Menu@@QAEHI@Z                                  	@639
	?Dispatch@EventContext@@MAEJVEvent@@@Z                      	@640
	?DragEnter@CImageList@@SAHPAVWindow@@VPoint@@@Z             	@641
	?DragLeave@CImageList@@SAHPAVWindow@@@Z                     	@642
	?DragMove@CImageList@@SAHVPoint@@@Z                         	@643
	?DragShowNolock@CImageList@@SAHH@Z                          	@644
	?Draw@BitmapObject@@MAEXXZ                                  	@645
	?Draw@CImageList@@QAEHPAUHDC__@@HVPoint@@I@Z                	@646
	?Draw@CImageListObject@@MAEXXZ                              	@647
	?Draw@CPolyPolygonObject@@MAEXXZ                            	@648
	?Draw@CPolygonObject@@MAEXXZ                                	@649
	?Draw@DrawObject@@MAEXXZ                                    	@650
	?Draw@EllipseObject@@MAEXXZ                                 	@651
	?Draw@FmtTextObject@@UAEXXZ                                 	@652
	?Draw@LineObject@@MAEXXZ                                    	@653
	?Draw@RectangleObject@@MAEXXZ                               	@654
	?Draw@TextObject@@MAEXXZ                                    	@655
	?Draw@Window@@QAEXPAVDrawObject@@@Z                         	@656
	?DrawCallUp@Window@@UAEHPAVDrawObject@@H@Z                  	@657
	?DrawEntireItem@Window@@MAEHVDrawItemEvt@@@Z                	@658
	?DrawEx@DrawObject@@MAEXK@Z                                 	@659
	?DrawEx@Window@@QAEXPAVDrawObject@@K@Z                      	@660
	?DrawItemFocus@Window@@MAEHVDrawItemEvt@@@Z                 	@661
	?DrawItemSelect@Window@@MAEHVDrawItemEvt@@@Z                	@662
	?DriverName@PrintingDevice@@QAEPBDXZ                        	@663
	?EditChange@Window@@MAEXVControlEvt@@@Z                     	@664
	?EditFocusChg@Window@@MAEXVEditFocusChgEvt@@@Z              	@665
	?EditLabel@CListViewCtrl@@QAEPAVSingleLineEdit@@H@Z         	@666
	?EditLabel@CTreeViewCtrl@@QAEPAVSingleLineEdit@@PAU_TREEITEM@@@Z	@667
	?EditScroll@Window@@MAEXVControlEvt@@@Z                     	@668
	?Enable@Control@@QAEXXZ                                     	@669
	?Enable@ControlWindow@@QAEXXZ                               	@670
	?Enable@Window@@QAEXXZ                                      	@671
	?EnableBorder@AppWindow@@QAEXW4BorderType@1@@Z              	@672
	?EnableButton@CToolBarCtrl@@QAEHHH@Z                        	@673
	?EnableHScroll@Window@@QAEPAVWndHorzScrollBar@@H@Z          	@674
	?EnableHelp@Window@@QAEXHPAVHelpDisplay@@@Z                 	@675
	?EnableItem@Menu@@QAEHI@Z                                   	@676
	?EnableMaxBox@AppWindow@@QAEXH@Z                            	@677
	?EnableMinBox@AppWindow@@QAEXH@Z                            	@678
	?EnableSysMenu@AppWindow@@QAEPAVSysMenu@@H@Z                	@679
	?EnableVScroll@Window@@QAEPAVWndVertScrollBar@@H@Z          	@680
	?End@Selection@@QAEAAJXZ                                    	@681
	?EndDialog@CPropertySheet@@QAEXH@Z                          	@682
	?EndDlg@DialogWindow@@IAEXH@Z                               	@683
	?EndDrag@CImageList@@SAXXZ                                  	@684
	?EnsureVisible@CListViewCtrl@@QAEHHH@Z                      	@685
	?EnsureVisible@CTreeViewCtrl@@QAEHPAU_TREEITEM@@@Z          	@686
	?Expand@CTreeViewCtrl@@QAEHPAU_TREEITEM@@I@Z                	@687
	?Expose@ControlWindow@@MAEXVExposeEvt@@@Z                   	@688
	?Expose@Window@@MAEXVExposeEvt@@@Z                          	@689
	?ExtractIconA@CImageList@@QAEPAUHICON__@@H@Z                	@690
	?FInit@Control@@QAEHXZ                                      	@691
	?FInit@ControlWindow@@QAEHXZ                                	@692
	?FillInToolInfo@CToolTipCtrl@@QAEXAAUtagTOOLINFOA@@PAVWindow@@I@Z	@693
	?Find@CVLinked_List@@QAEPAXPAX@Z                            	@694
	?FindItem@CListViewCtrl@@QAEHPAUtagLVFINDINFOA@@H@Z         	@695
	?FindItemDeep@CVTable@@QAEHPBD@Z                            	@696
	?FindItemShallow@CVTable@@QAEHPBD@Z                         	@697
	?FindString@BaseListBox@@QAEHPBDH@Z                         	@698
	?FindString@MultiSelListBox@@QAEHPBDHH@Z                    	@699
	?First@CVLinked_List@@QAEPAVCVLink@@XZ                      	@700
	?Flags@CStdFileDlg@@QAEJXZ                                  	@701
	?FocusChange@Window@@MAEXVFocusChangeEvt@@@Z                	@702
	?ForwardEvent@Control@@QAEJIIJ@Z                            	@703
	?ForwardEvent@Control@@QAEJVEvent@@@Z                       	@704
	?ForwardEvent@Window@@QAEJIIJ@Z                             	@705
	?ForwardEvent@Window@@QAEJVEvent@@@Z                        	@706
	?FreeListboxExtents@BaseListBox@@QAEHXZ                     	@1360
	?GaugeBoxWndProc@@YGJPAUHWND__@@IIJ@Z                       	@707
	?Get3DWidth@GaugeBox@@QAEFXZ                                	@708
	?GetAccel@CSpinButtonCtrl@@QAEIHPAU_UDACCEL@@@Z             	@709
	?GetAccel@Window@@QAEPAVAccel@@XZ                           	@710
	?GetBackground@Window@@QAEPAVBrush@@XZ                      	@711
	?GetBase@CSpinButtonCtrl@@QAEIXZ                            	@712
	?GetBezelFace@GaugeBox@@QAEFXZ                              	@713
	?GetBitmapFlags@CToolBarCtrl@@QAEIXZ                        	@714
	?GetBits@Bitmap@@QAEKKPAG@Z                                 	@715
	?GetBkColor@CImageList@@QAEKXZ                              	@716
	?GetBkColor@CListViewCtrl@@QAEKXZ                           	@717
	?GetBkColor@GaugeBox@@QAE?AVColor@@XZ                       	@718
	?GetBlinkTime@Cursor@@QAEIXZ                                	@719
	?GetBlock@ScrollBar@@QAEIXZ                                 	@720
	?GetBorders@CStatusBarCtrl@@QAEHAAH00@Z                     	@721
	?GetBorders@CStatusBarCtrl@@QAEHPAH@Z                       	@722
	?GetBrush@Window@@QAEPAVBrush@@XZ                           	@723
	?GetBuddy@CSpinButtonCtrl@@QAEPAVControl@@XZ                	@724
	?GetButton@CToolBarCtrl@@QAEHHPAU_TBBUTTON@@@Z              	@725
	?GetButtonCount@CToolBarCtrl@@QAEHXZ                        	@726
	?GetCallbackMask@CListViewCtrl@@QAEIXZ                      	@727
	?GetCaption@Window@@QAEPADPADH@Z                            	@728
	?GetCaretIndex@MultiSelListBox@@QAEFXZ                      	@729
	?GetChildItem@CTreeViewCtrl@@QAEPAU_TREEITEM@@PAU2@@Z       	@730
	?GetColor@CStdColorDlg@@QAE?AVColor@@XZ                     	@731
	?GetColor@Pen@@QAE?AVColor@@XZ                              	@732
	?GetColumn@CListViewCtrl@@QAEHHPAUtagLVCOLUMNA@@@Z          	@733
	?GetColumnOrderArray@CListViewCtrl@@QAEHHPAH@Z              	@734
	?GetColumnWidth@CListViewCtrl@@QAEHH@Z                      	@735
	?GetControl@ControlEvt@@QAEPAVControl@@XZ                   	@736
	?GetControl@ControlWindow@@IAEPAVControl@@XZ                	@737
	?GetControl@NotifyEvt@@QAEPAVControl@@XZ                    	@738
	?GetControlID@ControlEvt@@QAE?AVCvID@@XZ                    	@739
	?GetControlID@NotifyEvt@@QAE?AVCvID@@XZ                     	@740
	?GetCount@BaseListBox@@QAEHXZ                               	@741
	?GetCount@CTreeViewCtrl@@QAEIXZ                             	@742
	?GetCountPerPage@CListViewCtrl@@QAEHXZ                      	@743
	?GetCtrlID@DrawItemEvt@@QAEHXZ                              	@744
	?GetCurrentFile@FileListBox@@QAEHPADH@Z                     	@745
	?GetCurrentIndex@ListBox@@QAEHXZ                            	@746
	?GetCurrentString@ListBox@@QAEHPADH@Z                       	@747
	?GetDragImage@CImageList@@SAPAV1@PAVPoint@@0@Z              	@748
	?GetDrawTarget@Window@@QAEPAUHDC__@@XZ                      	@749
	?GetDropHilightItem@CTreeViewCtrl@@QAEPAU_TREEITEM@@XZ      	@750
	?GetEditControl@CListViewCtrl@@QAEPAVSingleLineEdit@@XZ     	@751
	?GetEditControl@CTreeViewCtrl@@QAEPAVSingleLineEdit@@XZ     	@752
	?GetEditSelection@ComboBox@@QAE?AVSelection@@H@Z            	@753
	?GetEditSelection@ComboBox@@QAE?AVSelection@@PADH@Z         	@754
	?GetErrorType@PrinterErrorEvt@@QAE?AW4ErrorType@1@XZ        	@755
	?GetExposedArea@CDCExposeEvt@@QAE?AVRectangle@@XZ           	@756
	?GetExposedArea@ExposeEvt@@QAE?AVRectangle@@XZ              	@757
	?GetExposedArea@PrinterExposeEvt@@QAE?AVRectangle@@XZ       	@758
	?GetExtendedStyle@CListViewCtrl@@QAEKXZ                     	@759
	?GetFColor@GaugeBox@@QAE?AVColor@@XZ                        	@760
	?GetFileName@CStdFileDlg@@QAEXPADH@Z                        	@761
	?GetFileNameLen@CStdFileDlg@@QAEHXZ                         	@762
	?GetFilterIndex@CStdFileDlg@@QAEHXZ                         	@763
	?GetFirstSelected@MultiSelListBox@@QAEHXZ                   	@764
	?GetFirstVisibleItem@CTreeViewCtrl@@QAEPAU_TREEITEM@@XZ     	@765
	?GetFont@Window@@QAEPAVCVFont@@XZ                           	@766
	?GetHelpInfo@HelpRequestEvt@@QAEPBUtagHELPINFO@@XZ          	@767
	?GetHotCursor@CListViewCtrl@@QAEPAUHICON__@@XZ              	@768
	?GetHotItem@CListViewCtrl@@QAEHXZ                           	@769
	?GetID@Control@@QAE?AVCvID@@XZ                              	@770
	?GetID@ControlWindow@@QAE?AVCvID@@XZ                        	@771
	?GetImage@PushButton@@QAEPAUHBITMAP__@@XZ                   	@772
	?GetImageCount@CImageList@@QAEHXZ                           	@773
	?GetImageInfo@CImageList@@QAEHHPAU_IMAGEINFO@@@Z            	@774
	?GetImageList@CListViewCtrl@@QAEPAVCImageList@@H@Z          	@775
	?GetImageList@CTreeViewCtrl@@QAEPAVCImageList@@I@Z          	@776
	?GetIndent@CTreeViewCtrl@@QAEIXZ                            	@777
	?GetItem@CListViewCtrl@@QAEHPAUtagLVITEMA@@@Z               	@778
	?GetItem@CTreeViewCtrl@@QAEHPAUtagTVITEMA@@@Z               	@779
	?GetItemCount@CListViewCtrl@@QAEHXZ                         	@780
	?GetItemData@BaseListBox@@QAEKH@Z                           	@781
	?GetItemData@CListViewCtrl@@QAEKH@Z                         	@782
	?GetItemData@CTreeViewCtrl@@QAEKPAU_TREEITEM@@@Z            	@783
	?GetItemData@DeleteItemEvt@@QAEPAXXZ                        	@784
	?GetItemData@DrawItemEvt@@QAEPAXXZ                          	@785
	?GetItemData@MeasureItemEvt@@QAEPAXXZ                       	@786
	?GetItemID@DeleteItemEvt@@QAEHXZ                            	@787
	?GetItemID@DrawItemEvt@@QAEHXZ                              	@788
	?GetItemID@HelpRequestEvt@@QAEIXZ                           	@789
	?GetItemID@MeasureItemEvt@@QAEHXZ                           	@790
	?GetItemID@MenuCommandEvt@@QAEIXZ                           	@791
	?GetItemID@MenuSelectEvt@@QAEIXZ                            	@792
	?GetItemImage@CTreeViewCtrl@@QAEHPAU_TREEITEM@@AAH1@Z       	@793
	?GetItemRect@CListViewCtrl@@QAEHHPAUtagRECT@@I@Z            	@794
	?GetItemRect@CToolBarCtrl@@QAEHHPAUtagRECT@@@Z              	@795
	?GetItemRect@CTreeViewCtrl@@QAEHPAU_TREEITEM@@PAVRectangle@@H@Z	@796
	?GetItemSize@CClipboard@@QAEJW4Format@1@@Z                  	@797
	?GetItemState@CListViewCtrl@@QAEIHI@Z                       	@798
	?GetItemState@CTreeViewCtrl@@QAEIPAU_TREEITEM@@I@Z          	@799
	?GetItemText@CListViewCtrl@@QAE?AV?$os_basic_string@DVos_char_traits_char@@V?$allocator@D@@@@HH@Z	@800
	?GetItemText@CListViewCtrl@@QAEHHHPADH@Z                    	@801
	?GetItemText@CTreeViewCtrl@@QAE?AV?$os_basic_string@DVos_char_traits_char@@V?$allocator@D@@@@PAU_TREEITEM@@@Z	@802
	?GetLine@EditWindow@@QAEIIPADI@Z                            	@803
	?GetLine@MultiLineEdit@@QAEIHPADI@Z                         	@804
	?GetLineLength@MultiLineEdit@@QAEIH@Z                       	@805
	?GetLogFont@CVFont@@QAEHPAPAUtagLOGFONTA@@@Z                	@806
	?GetMenu@MenuCommandEvt@@QAEPAVMenu@@XZ                     	@807
	?GetMenu@MenuInitEvt@@QAEPAVMenu@@XZ                        	@808
	?GetMenu@MenuSelectEvt@@QAEPAVMenu@@XZ                      	@809
	?GetMenu@Window@@QAEPAVMenu@@XZ                             	@810
	?GetNewHeight@ReSizeEvt@@QAEJXZ                             	@811
	?GetNewSize@ReSizeEvt@@QAE?AVDimension@@XZ                  	@812
	?GetNewWidth@ReSizeEvt@@QAEJXZ                              	@813
	?GetNextItem@CListViewCtrl@@QAEHHH@Z                        	@814
	?GetNextItem@CTreeViewCtrl@@QAEPAU_TREEITEM@@PAU2@I@Z       	@815
	?GetNextSelected@MultiSelListBox@@QAEHXZ                    	@816
	?GetNextSiblingItem@CTreeViewCtrl@@QAEPAU_TREEITEM@@PAU2@@Z 	@817
	?GetNextVisibleItem@CTreeViewCtrl@@QAEPAU_TREEITEM@@PAU2@@Z 	@818
	?GetNoSelected@MultiSelListBox@@QAEHXZ                      	@819
	?GetNotifyInfo@NotifyEvt@@QAEPAUtagNMHDR@@XZ                	@820
	?GetNumLines@EditWindow@@QAEIXZ                             	@821
	?GetNumLines@MultiLineEdit@@QAEIXZ                          	@822
	?GetOldPos@ScrollEvt@@QAEHXZ                                	@823
	?GetOrientation@GaugeBox@@QAEFXZ                            	@824
	?GetOrigin@CListViewCtrl@@QAEHPAUtagPOINT@@@Z               	@825
	?GetPage@CPropertySheet@@QBEPAVCPropertyPage@@I@Z           	@826
	?GetPageCount@CPropertySheet@@QAEHXZ                        	@827
	?GetPageNumber@PrinterExposeEvt@@QAEHXZ                     	@828
	?GetPageSize@ScrollBar@@QAEIXZ                              	@829
	?GetParent@Control@@QAEPAVWindow@@XZ                        	@830
	?GetParent@Window@@QAEPAV1@XZ                               	@831
	?GetParentItem@CTreeViewCtrl@@QAEPAU_TREEITEM@@PAU2@@Z      	@832
	?GetParts@CStatusBarCtrl@@QAEHHPAH@Z                        	@833
	?GetPen@Window@@QAEPAVPen@@XZ                               	@834
	?GetPointer@Window@@QAEPAVPointer@@XZ                       	@835
	?GetPos@CSpinButtonCtrl@@QAEHXZ                             	@836
	?GetPos@Cursor@@QAE?AVPoint@@XZ                             	@837
	?GetPos@Pointer@@QAE?AVPoint@@XZ                            	@838
	?GetPos@ScrollEvt@@QAEHXZ                                   	@839
	?GetPosition@Control@@QAE?AVPoint@@XZ                       	@840
	?GetPosition@DrawObject@@UAE?AVPoint@@XZ                    	@841
	?GetPosition@GaugeBox@@QAEFXZ                               	@842
	?GetPosition@Window@@QAE?AVPoint@@XZ                        	@843
	?GetPrevSiblingItem@CTreeViewCtrl@@QAEPAU_TREEITEM@@PAU2@@Z 	@844
	?GetPrevVisibleItem@CTreeViewCtrl@@QAEPAU_TREEITEM@@PAU2@@Z 	@845
	?GetPropertySheet@CPropertyPage@@IAEPAVCPropertySheet@@XZ   	@846
	?GetRange@CSpinButtonCtrl@@QAEKXZ                           	@847
	?GetRange@CSpinButtonCtrl@@QAEXAAH0@Z                       	@848
	?GetRange@GaugeBox@@QAEFXZ                                  	@849
	?GetRange@ScrollBar@@QAE?AVRange@@XZ                        	@850
	?GetRect@CStatusBarCtrl@@QAEHHPAUtagRECT@@@Z                	@851
	?GetRootItem@CTreeViewCtrl@@QAEPAU_TREEITEM@@XZ             	@852
	?GetRow@MultiSelTabularListBox@@QAAHHZZ                     	@853
	?GetRow@TabularListBox@@QAAHHZZ                             	@854
	?GetRows@CToolBarCtrl@@QAEHXZ                               	@855
	?GetScrollBar@ScrollEvt@@QAEPAVScrollBar@@XZ                	@856
	?GetScrollType@ScrollEvt@@QAE?AW4ScrollType@@XZ             	@857
	?GetSelectedCount@CListViewCtrl@@QAEIXZ                     	@858
	?GetSelectedItem@CTreeViewCtrl@@QAEPAU_TREEITEM@@XZ         	@859
	?GetSelection@Edit@@QAE?AVSelection@@H@Z                    	@860
	?GetSelection@Edit@@QAE?AVSelection@@PADH@Z                 	@861
	?GetSelection@EditWindow@@QAE?AVSelection@@XZ               	@862
	?GetSelection@MultiSelListBox@@QAEHF@Z                      	@863
	?GetSize@Bitmap@@QAE?AVDimension@@XZ                        	@864
	?GetSize@Control@@QAE?AVDimension@@XZ                       	@865
	?GetSize@DrawObject@@UAE?AVDimension@@XZ                    	@866
	?GetSize@LineObject@@UAE?AVDimension@@XZ                    	@867
	?GetSize@ShapeObject@@UAE?AVDimension@@XZ                   	@868
	?GetSize@Window@@QAE?AVDimension@@XZ                        	@869
	?GetState@CToolBarCtrl@@QAEHH@Z                             	@870
	?GetState@RadioButton@@QAEHXZ                               	@871
	?GetString@BaseListBox@@QAEHPADHH@Z                         	@872
	?GetString@MenuCommandEvt@@QAEPADPADH@Z                     	@873
	?GetString@MenuSelectEvt@@QAEPADPADH@Z                      	@874
	?GetStringLength@BaseListBox@@QAEHH@Z                       	@875
	?GetStringWidth@CListViewCtrl@@QAEHPBD@Z                    	@876
	?GetStyle@Pen@@QAE?AW4StdLineStyle@@XZ                      	@877
	?GetSubItemRect@CListViewCtrl@@QAEHHHHPAUtagRECT@@@Z        	@878
	?GetText@CStatusBarCtrl@@QAE?AV?$os_basic_string@DVos_char_traits_char@@V?$allocator@D@@@@HPAH@Z	@879
	?GetText@CStatusBarCtrl@@QAEHPBDHPAH@Z                      	@880
	?GetText@CToolTipCtrl@@QAEXAAV?$os_basic_string@DVos_char_traits_char@@V?$allocator@D@@@@PAVWindow@@I@Z	@881
	?GetText@EditWindow@@QAEXPADI@Z                             	@882
	?GetText@TextControl@@QAEXPADI@Z                            	@883
	?GetTextBkColor@CListViewCtrl@@QAEKXZ                       	@884
	?GetTextColor@CListViewCtrl@@QAEKXZ                         	@885
	?GetTextLen@EditWindow@@QAEIXZ                              	@886
	?GetTextLen@TextControl@@QAEIXZ                             	@887
	?GetTextLength@CStatusBarCtrl@@QAEHHPAH@Z                   	@888
	?GetThumbPos@ScrollBar@@QAEHXZ                              	@889
	?GetToolCount@CToolTipCtrl@@QAEHXZ                          	@890
	?GetToolInfo@CToolTipCtrl@@QAEHPAUtagTOOLINFOA@@PAVWindow@@I@Z	@891
	?GetToolTipID@ToolTipEvt@@QAEIXZ                            	@892
	?GetToolTips@CToolBarCtrl@@QAEPAVCToolTipCtrl@@XZ           	@893
	?GetTopIndex@CListViewCtrl@@QAEHXZ                          	@894
	?GetTrackPos@ScrollBar@@QAEHXZ                              	@895
	?GetType@MessBox@@QAEHXZ                                    	@896
	?GetUnit@ScrollBar@@QAEIXZ                                  	@897
	?GetViewRect@CListViewCtrl@@QAEHPAUtagRECT@@@Z              	@898
	?GetVisibleCount@CTreeViewCtrl@@QAEIXZ                      	@899
	?GetWidth@Pen@@QAEJXZ                                       	@900
	?GetWindowArea@HelpRequestEvt@@QAE?AW4WindowArea@@XZ        	@901
	?GetX@Point@@QBEJXZ                                         	@902
	?GetY@Point@@QBEJXZ                                         	@903
	?Green@Color@@QAEAAEXZ                                      	@904
	?Handle@Accel@@QAEPAUHACCEL__@@G@Z                          	@905
	?Handle@App@@SAPAUHINSTANCE__@@G@Z                          	@906
	?Handle@Bitmap@@QAEPAUHBITMAP__@@G@Z                        	@907
	?Handle@Brush@@QAEPAUHBRUSH__@@G@Z                          	@908
	?Handle@CDCWindow@@QAEPAUHWND__@@G@Z                        	@909
	?Handle@CImageList@@QBEPAU_IMAGELIST@@G@Z                   	@910
	?Handle@CPropertyPage@@QAEPAUHWND__@@G@Z                    	@911
	?Handle@CVFont@@QAEPAUHFONT__@@G@Z                          	@912
	?Handle@Control@@QAEPAUHWND__@@G@Z                          	@913
	?Handle@Cursor@@QAEPAUHWND__@@G@Z                           	@914
	?Handle@DialogWindow@@QAEPAUHWND__@@G@Z                     	@915
	?Handle@DrawItemEvt@@QAEPAXG@Z                              	@916
	?Handle@DrawObject@@IAEPAUHDC__@@G@Z                        	@917
	?Handle@EventContext@@IAEPAUHWND__@@G@Z                     	@918
	?Handle@HelpDisplay@@QAEPAXG@Z                              	@919
	?Handle@Icon@@QAEPAUHICON__@@G@Z                            	@920
	?Handle@MeasureItemEvt@@QAEPAUHWND__@@G@Z                   	@921
	?Handle@Menu@@QAEPAUHMENU__@@G@Z                            	@922
	?Handle@MessBox@@QAEPAUHWND__@@G@Z                          	@923
	?Handle@Pen@@QAEPAUHPEN__@@G@Z                              	@924
	?Handle@Pointer@@QAEPAUHICON__@@G@Z                         	@925
	?Handle@Printer@@QAEPAUHDC__@@G@Z                           	@926
	?Handle@ResID@@QAEPAUHINSTANCE__@@XZ                        	@927
	?Handle@ShellWindow@@QAEPAUHWND__@@G@Z                      	@928
	?Handle@Window@@QAEPAUHWND__@@G@Z                           	@929
	?Height@Dimension@@QAEAAJXZ                                 	@930
	?Height@Rectangle@@QAEJXZ                                   	@931
	?HelpError@HelpDisplay@@QAE?AW4HdError@@XZ                  	@932
	?HelpRequest@Window@@MAEXVHelpRequestEvt@@@Z                	@933
	?Hide@Control@@QAEXXZ                                       	@934
	?Hide@ControlWindow@@QAEXXZ                                 	@935
	?Hide@Cursor@@QAEXXZ                                        	@936
	?Hide@Pointer@@QAEXXZ                                       	@937
	?Hide@Window@@QAEXXZ                                        	@938
	?HideButton@CToolBarCtrl@@QAEHHH@Z                          	@939
	?HitTest@CListViewCtrl@@QAEHPAUtagLVHITTESTINFO@@@Z         	@940
	?HitTest@CListViewCtrl@@QAEHVPoint@@PAI@Z                   	@941
	?HitTest@CToolTipCtrl@@QAEHPAVWindow@@VPoint@@PAUtagTOOLINFOA@@@Z	@942
	?HitTest@CTreeViewCtrl@@QAEPAU_TREEITEM@@PAUtagTVHITTESTINFO@@@Z	@943
	?HitTest@CTreeViewCtrl@@QAEPAU_TREEITEM@@VPoint@@PAI@Z      	@944
	?HitTest@DrawObject@@UAEHVPoint@@@Z                         	@945
	?HorizScroll@ControlWindow@@MAEXVScrollEvt@@@Z              	@946
	?HorizScroll@Window@@MAEXVScrollEvt@@@Z                     	@947
	?Idle@Printer@@MAEXXZ                                       	@948
	?Indeterminate@CToolBarCtrl@@QAEHHH@Z                       	@949
	?Init@CVFont@@QAEXXZ                                        	@950
	?InitFromData@PrintingDevice@@QAEHPAUtagDVTARGETDEVICE@@@Z  	@951
	?InitFromDefaultPrinter@PrintingDevice@@QAEHPAPAUtagDVTARGETDEVICE@@@Z	@952
	?InitListboxExtents@BaseListBox@@QAEHXZ                     	@1361
	?Insert@CClipboard@@QAEXPBD@Z                               	@953
	?Insert@CClipboard@@QAEXQAVBitmap@@@Z                       	@954
	?Insert@CVLinked_List@@QAEXPAX0@Z                           	@955
	?Insert@CVTable@@QAEXIPBD@Z                                 	@956
	?InsertButton@CToolBarCtrl@@QAEHHPAU_TBBUTTON@@@Z           	@957
	?InsertColumn@CListViewCtrl@@QAEHHPBDHHH@Z                  	@958
	?InsertColumn@CListViewCtrl@@QAEHHPBUtagLVCOLUMNA@@@Z       	@959
	?InsertItem@CListViewCtrl@@QAEHHPBD@Z                       	@960
	?InsertItem@CListViewCtrl@@QAEHHPBDH@Z                      	@961
	?InsertItem@CListViewCtrl@@QAEHIHPBDIIHJ@Z                  	@962
	?InsertItem@CListViewCtrl@@QAEHPBUtagLVITEMA@@@Z            	@963
	?InsertItem@CTreeViewCtrl@@QAEPAU_TREEITEM@@IPBDHHIIJPAU2@1@Z	@964
	?InsertItem@CTreeViewCtrl@@QAEPAU_TREEITEM@@PBDHHPAU2@1@Z   	@965
	?InsertItem@CTreeViewCtrl@@QAEPAU_TREEITEM@@PBDPAU2@1@Z     	@966
	?InsertItem@CTreeViewCtrl@@QAEPAU_TREEITEM@@PBUtagTVINSERTSTRUCTA@@@Z	@967
	?InsertItem@Menu@@QAEHIPAVBitmap@@I@Z                       	@968
	?InsertItem@Menu@@QAEHIPBDI@Z                               	@969
	?InsertItem@Menu@@QAEHPAV1@PBDI@Z                           	@970
	?InsertSeparator@Menu@@QAEHI@Z                              	@971
	?IsButtonChecked@CToolBarCtrl@@QAEHH@Z                      	@972
	?IsButtonEnabled@CToolBarCtrl@@QAEHH@Z                      	@973
	?IsButtonHidden@CToolBarCtrl@@QAEHH@Z                       	@974
	?IsButtonIndeterminate@CToolBarCtrl@@QAEHH@Z                	@975
	?IsButtonPressed@CToolBarCtrl@@QAEHH@Z                      	@976
	?Item@CVLink@@QAEPAXXZ                                      	@977
	?ItemHasChildren@CTreeViewCtrl@@QAEHPAU_TREEITEM@@@Z        	@978
	?ItemSize@DrawItemEvt@@QAE?AVRectangle@@XZ                  	@979
	?ItemType@OwnerDrawEvt@@QAE?AW4OwnerDrawControl@1@XZ        	@980
	?Key@CVLink@@QAEPAXXZ                                       	@981
	?KeyDown@Window@@MAEXVKeyEvt@@@Z                            	@982
	?KeyUp@Window@@MAEXVKeyEvt@@@Z                              	@983
	?Keycode@KeyEvt@@QAEFXZ                                     	@984
	?LParam@Event@@QAEAAJXZ                                     	@985
	?Left@Rectangle@@QAEAAJXZ                                   	@986
	?Len@ResString@@QAEHXZ                                      	@987
	?LineDown@EditWindow@@QAEXXZ                                	@988
	?LineDown@MultiLineEdit@@QAEXXZ                             	@989
	?LineTo@Window@@QAEXVPoint@@@Z                              	@990
	?LineUp@EditWindow@@QAEXXZ                                  	@991
	?LineUp@MultiLineEdit@@QAEXXZ                               	@992
	?List@FileListBox@@QAEHPBDI@Z                               	@993
	?ListBoxClk@Window@@MAEXVControlEvt@@@Z                     	@994
	?ListBoxSel@Window@@MAEXVControlEvt@@@Z                     	@995
	?LockOrder@CVLinked_List@@QAEXE@Z                           	@996
	?LowerRight@Rectangle@@QAE?AVPoint@@XZ                      	@997
	?Max@Range@@QAEAAJXZ                                        	@998
	?MeasureItem@Window@@MAEHVMeasureItemEvt@@@Z                	@999
	?MenuCommand@Window@@MAEXVMenuCommandEvt@@@Z                	@1000
	?MenuInit@Window@@MAEXVMenuInitEvt@@@Z                      	@1001
	?MenuSelect@Window@@MAEXVMenuSelectEvt@@@Z                  	@1002
	?Min@Range@@QAEAAJXZ                                        	@1003
	?MouseButtonDblClk@Window@@MAEXVMouseEvt@@@Z                	@1004
	?MouseButtonDn@Window@@MAEXVMouseEvt@@@Z                    	@1005
	?MouseButtonUp@Window@@MAEXVMouseEvt@@@Z                    	@1006
	?MouseDrag@Window@@MAEXVMouseEvt@@@Z                        	@1007
	?MouseMove@Window@@MAEXVMouseEvt@@@Z                        	@1008
	?MouseTrap@Window@@QAEXH@Z                                  	@1009
	?Move@Window@@MAEXVMoveEvt@@@Z                              	@1010
	?MoveTo@Window@@QAE?AVPoint@@V2@@Z                          	@1011
	?MoveToFront@CVLinked_List@@IAEXXZ                          	@1012
	?Msg@Event@@QAEAAIXZ                                        	@1013
	?NewOrigin@MoveEvt@@QAE?AVPoint@@XZ                         	@1014
	?Next@CVLink@@QAEPAV1@XZ                                    	@1015
	?Next@CVLinked_List@@QAEPAVCVLink@@XZ                       	@1016
	?OffsetPos@CProgressCtrl@@QAEHH@Z                           	@1017
	?OnBeginAdjust@Window@@MAEXVNotifyEvt@@@Z                   	@1018
	?OnBeginDrag@Window@@MAEXVNotifyEvt@@@Z                     	@1019
	?OnBeginLabelEdit@Window@@MAEHVNotifyEvt@@@Z                	@1020
	?OnBeginRDrag@Window@@MAEXVNotifyEvt@@@Z                    	@1021
	?OnCancel@CPropertyPage@@MAEXVNotifyEvt@@@Z                 	@1022
	?OnClick@Window@@MAEXVNotifyEvt@@@Z                         	@1023
	?OnColumnClick@Window@@MAEXVNotifyEvt@@@Z                   	@1024
	?OnCustHelp@Window@@MAEXVNotifyEvt@@@Z                      	@1025
	?OnDblClick@Window@@MAEXVNotifyEvt@@@Z                      	@1026
	?OnDeleteAllItems@Window@@MAEXVNotifyEvt@@@Z                	@1027
	?OnDeleteItem@Window@@MAEXVNotifyEvt@@@Z                    	@1028
	?OnDeltaPos@Window@@MAEHVNotifyEvt@@@Z                      	@1029
	?OnEndAdjust@Window@@MAEXVNotifyEvt@@@Z                     	@1030
	?OnEndDrag@Window@@MAEXVNotifyEvt@@@Z                       	@1031
	?OnEndLabelEdit@Window@@MAEXVNotifyEvt@@@Z                  	@1032
	?OnGetButtonInfo@Window@@MAEHVNotifyEvt@@@Z                 	@1033
	?OnGetDispInfo@Window@@MAEXVNotifyEvt@@@Z                   	@1034
	?OnHelp@CPropertyPage@@MAEXVNotifyEvt@@@Z                   	@1035
	?OnHidingTip@Window@@MAEXVToolTipEvt@@@Z                    	@1036
	?OnInsertItem@Window@@MAEXVNotifyEvt@@@Z                    	@1037
	?OnItemChanged@Window@@MAEXVNotifyEvt@@@Z                   	@1038
	?OnItemChanging@Window@@MAEHVNotifyEvt@@@Z                  	@1039
	?OnItemExpanded@Window@@MAEXVNotifyEvt@@@Z                  	@1040
	?OnItemExpanding@Window@@MAEHVNotifyEvt@@@Z                 	@1041
	?OnKeyDown@Window@@MAEXVNotifyEvt@@@Z                       	@1042
	?OnKillActive@CPropertyPage@@MAEHVNotifyEvt@@@Z             	@1043
	?OnNeedText@Window@@MAEXVToolTipEvt@@@Z                     	@1044
	?OnOK@CPropertyPage@@MAEHVNotifyEvt@@@Z                     	@1045
	?OnQueryCancel@CPropertyPage@@MAEHVNotifyEvt@@@Z            	@1046
	?OnQueryDelete@Window@@MAEHVNotifyEvt@@@Z                   	@1047
	?OnQueryInsert@Window@@MAEHVNotifyEvt@@@Z                   	@1048
	?OnReset@Window@@MAEXVNotifyEvt@@@Z                         	@1049
	?OnSelChanged@Window@@MAEXVNotifyEvt@@@Z                    	@1050
	?OnSelChanging@Window@@MAEHVNotifyEvt@@@Z                   	@1051
	?OnSetActive@CPropertyPage@@MAEHVNotifyEvt@@@Z              	@1052
	?OnSetDispInfo@Window@@MAEXVNotifyEvt@@@Z                   	@1053
	?OnShowingTip@Window@@MAEXVToolTipEvt@@@Z                   	@1054
	?OnToolBarChange@Window@@MAEXVNotifyEvt@@@Z                 	@1055
	?OnWizBack@CPropertyPage@@MAEHVNotifyEvt@@@Z                	@1056
	?OnWizFinish@CPropertyPage@@MAEHVNotifyEvt@@@Z              	@1057
	?OnWizNext@CPropertyPage@@MAEHVNotifyEvt@@@Z                	@1058
	?Open@CAnimateCtrl@@QAEHI@Z                                 	@1059
	?Open@CAnimateCtrl@@QAEHPBD@Z                               	@1060
	?PageDown@EditWindow@@QAEXXZ                                	@1061
	?PageDown@MultiLineEdit@@QAEXXZ                             	@1062
	?PageUp@EditWindow@@QAEXXZ                                  	@1063
	?PageUp@MultiLineEdit@@QAEXXZ                               	@1064
	?PaintRectangle@Window@@QAEXVRectangle@@W4PaintMode@@@Z     	@1065
	?PaletteChange@Window@@MAEXVPaletteChangeEvt@@@Z            	@1066
	?Play@CAnimateCtrl@@QAEHIII@Z                               	@1067
	?PortName@PrintingDevice@@QAEPBDXZ                          	@1068
	?PostEvent@Control@@QAEXIIJ@Z                               	@1069
	?PostEvent@Control@@QAEXVEvent@@@Z                          	@1070
	?PostEvent@Window@@QAEXIIJ@Z                                	@1071
	?PostEvent@Window@@QAEXVEvent@@@Z                           	@1072
	?PreTranslateMsg@CPropertySheet@@UAEHPAUtagMSG@@@Z          	@1073
	?PreTranslateMsg@DialogWindow@@UAEHPAUtagMSG@@@Z            	@1074
	?PreTranslateMsg@Window@@UAEHPAUtagMSG@@@Z                  	@1075
	?PressButton@CPropertySheet@@QAEXK@Z                        	@1076
	?PressButton@CToolBarCtrl@@QAEHHH@Z                         	@1077
	?PressSheetButton@CPropertyPage@@QAEXK@Z                    	@1078
	?PrinterError@Printer@@MAEHVPrinterErrorEvt@@@Z             	@1079
	?PrinterExpose@BandingPrinter@@MAEHVPrinterExposeEvt@@@Z    	@1080
	?PrinterExpose@Printer@@MAEHVPrinterExposeEvt@@@Z           	@1081
	?Process@DrawObject@@UAEXVPoint@@@Z                         	@1082
	?PtInRect@Rectangle@@QAEHVPoint@@@Z                         	@1083
	?QueryClose@Window@@MAEHVEvent@@@Z                          	@1084
	?QuerySiblings@CPropertyPage@@QAEJIJ@Z                      	@1085
	?Quit@App@@SAXXZ                                            	@1086
	?QuitOnLast@App@@QAEHXZ                                     	@1087
	?RePaint@Window@@QAEXXZ                                     	@1088
	?RePaintRect@Window@@QAEXVRectangle@@@Z                     	@1089
	?ReSize@Window@@MAEXVReSizeEvt@@@Z                          	@1090
	?Red@Color@@QAEAAEXZ                                        	@1091
	?RedrawItems@CListViewCtrl@@QAEHHH@Z                        	@1092
	?RelayEvent@CToolTipCtrl@@QAEXPAUtagMSG@@@Z                 	@1093
	?Remove@CImageList@@QAEHH@Z                                 	@1094
	?RemoveExtentEntry@BaseListBox@@QAEKPBD@Z                   	@1362
	?RemoveImageList@CListViewCtrl@@IAEXH@Z                     	@1095
	?RemoveImageList@CTreeViewCtrl@@IAEXH@Z                     	@1096
	?RemovePage@CPropertySheet@@QAEHI@Z                         	@1097
	?RemovePage@CPropertySheet@@QAEHPAU_PSP@@@Z                 	@1098
	?RemovePage@CPropertySheet@@QAEHPAVCPropertyPage@@@Z        	@1099
	?Render@CDCWindow@@QAEHAAVRectangle@@@Z                     	@1100
	?Repeat@KeyEvt@@QAEFXZ                                      	@1101
	?Replace@CImageList@@QAEHHPAVBitmap@@0@Z                    	@1102
	?Replace@CImageList@@QAEHHPAVIcon@@@Z                       	@1103
	?ReplaceSelected@Edit@@QAEHPBD@Z                            	@1104
	?ReplaceSelected@EditWindow@@QAEXPBD@Z                      	@1105
	?RequestType@HelpRequestEvt@@QAE?AW4HelpType@@XZ            	@1106
	?Reserved@Color@@QAEAAEXZ                                   	@1107
	?ResetListboxExtents@BaseListBox@@QAEXXZ                    	@1363
	?RestoreState@CToolBarCtrl@@QAEXPAUHKEY__@@PBD1@Z           	@1108
	?Result@CStdFileDlg@@QAEHXZ                                 	@1109
	?Result@DialogWindow@@QAEHXZ                                	@1110
	?Retrieve@CClipboard@@QAEHPADH@Z                            	@1111
	?Retrieve@CClipboard@@QAEHPAVBitmap@@@Z                     	@1112
	?Right@Rectangle@@QAEAAJXZ                                  	@1113
	?Run@App@@SAJPBD@Z                                          	@1114
	?SaveState@CToolBarCtrl@@QAEXPAUHKEY__@@PBD1@Z              	@1115
	?Scroll@CListViewCtrl@@QAEHVDimension@@@Z                   	@1116
	?Scroll@Window@@QAEXVDimension@@VRectangle@@H@Z             	@1117
	?ScrollHoriz@EditWindow@@QAEXI@Z                            	@1118
	?ScrollHoriz@MultiLineEdit@@QAEXH@Z                         	@1119
	?ScrollVertical@EditWindow@@QAEXI@Z                         	@1120
	?ScrollVertical@MultiLineEdit@@QAEXH@Z                      	@1121
	?Seek@CAnimateCtrl@@QAEHI@Z                                 	@1122
	?Select@CTreeViewCtrl@@QAEPAU_TREEITEM@@PAU2@I@Z            	@1123
	?SelectDropTarget@CTreeViewCtrl@@QAEPAU_TREEITEM@@PAU2@@Z   	@1124
	?SelectItem@CTreeViewCtrl@@QAEPAU_TREEITEM@@PAU2@@Z         	@1125
	?SelectSetFirstVisible@CTreeViewCtrl@@QAEPAU_TREEITEM@@PAU2@@Z	@1126
	?Set3DWidth@GaugeBox@@QAEXF@Z                               	@1127
	?SetAccel@CSpinButtonCtrl@@QAEHHPAU_UDACCEL@@@Z             	@1128
	?SetAutoUpdate@Menu@@QAEXI@Z                                	@1129
	?SetBase@CSpinButtonCtrl@@QAEHH@Z                           	@1130
	?SetBezelFace@GaugeBox@@QAEXF@Z                             	@1131
	?SetBitmapSize@CToolBarCtrl@@QAEHVDimension@@@Z             	@1132
	?SetBits@Bitmap@@QAEKKPAG@Z                                 	@1133
	?SetBkColor@CImageList@@QAEKK@Z                             	@1134
	?SetBkColor@CListViewCtrl@@QAEHK@Z                          	@1135
	?SetBkColor@GaugeBox@@QAEXVColor@@@Z                        	@1136
	?SetBlock@ScrollBar@@QAEXI@Z                                	@1137
	?SetBold@CVFont@@QAEXXZ                                     	@1138
	?SetBorders@CStatusBarCtrl@@QAEHHHH@Z                       	@1139
	?SetBorders@CStatusBarCtrl@@QAEHPAH@Z                       	@1140
	?SetBuddy@CSpinButtonCtrl@@QAEPAVControl@@PAV2@@Z           	@1141
	?SetButtonSize@CToolBarCtrl@@QAEHVDimension@@@Z             	@1142
	?SetButtonStructSize@CToolBarCtrl@@QAEXH@Z                  	@1143
	?SetCallbackMask@CListViewCtrl@@QAEHI@Z                     	@1144
	?SetCaption@CStdFileDlg@@QAEXPBD@Z                          	@1145
	?SetCaption@Window@@QAEXPBD@Z                               	@1146
	?SetCaretIndex@MultiSelListBox@@QAEHFH@Z                    	@1147
	?SetChecked@CheckBox@@QAEXH@Z                               	@1148
	?SetCmdID@CToolBarCtrl@@QAEHHI@Z                            	@1149
	?SetColWidth@MultiSelTabularListBox@@QAEXII@Z               	@1150
	?SetColWidth@TabularListBox@@QAEXII@Z                       	@1151
	?SetColumn@CListViewCtrl@@QAEHHPBUtagLVCOLUMNA@@@Z          	@1152
	?SetColumnOrderArray@CListViewCtrl@@QAEHHPAH@Z              	@1153
	?SetColumnWidth@CListViewCtrl@@QAEHHH@Z                     	@1154
	?SetCurSel@CPropertySheet@@QAEHI@Z                          	@1155
	?SetCurSel@CPropertySheet@@QAEHPAU_PSP@@@Z                  	@1156
	?SetCurSel@CPropertySheet@@QAEHPAVCPropertyPage@@@Z         	@1157
	?SetCustomData@CStdFileDlg@@QAEXK@Z                         	@1158
	?SetDelayTime@CToolTipCtrl@@QAEXI@Z                         	@1159
	?SetDeltaPos@GaugeBox@@QAEXF@Z                              	@1160
	?SetDragCursorImage@CImageList@@QAEHHVPoint@@@Z             	@1161
	?SetDrawTarget@Window@@QAEPAUHDC__@@PAU2@@Z                 	@1162
	?SetEscapement@CVFont@@QAEFF@Z                              	@1163
	?SetExtendedStyle@CListViewCtrl@@QAEKK@Z                    	@1164
	?SetFColor@GaugeBox@@QAEXVColor@@@Z                         	@1165
	?SetFileName@CStdFileDlg@@QAEXPBD@Z                         	@1166
	?SetFilterIndex@CStdFileDlg@@QAEXH@Z                        	@1167
	?SetFixedPitch@CVFont@@QAEXXZ                               	@1168
	?SetFlags@CStdFileDlg@@QAEXJ@Z                              	@1169
	?SetFocus@Control@@QAEXXZ                                   	@1170
	?SetFocus@ControlWindow@@QAEXXZ                             	@1171
	?SetFocus@Window@@QAEXXZ                                    	@1172
	?SetHandle@EventContext@@IAEPAUHWND__@@GPAX@Z               	@1173
	?SetHandle@Window@@QAEPAUHWND__@@GPAX@Z                     	@1174
	?SetHookFcn@CStdFileDlg@@QAEXP6AIPAUHWND__@@IIJ@Z@Z         	@1175
	?SetHotCursor@CListViewCtrl@@QAEPAUHICON__@@PAU2@@Z         	@1176
	?SetHotItem@CListViewCtrl@@QAEHH@Z                          	@1177
	?SetIcon@AppWindow@@QAEXPAVIcon@@@Z                         	@1178
	?SetIcon@CPropertyPage@@QAEXPAVIcon@@@Z                     	@1179
	?SetIcon@CPropertyPage@@QAEXVResID@@@Z                      	@1180
	?SetIcon@CPropertySheet@@QAEXPAVIcon@@@Z                    	@1181
	?SetIcon@CPropertySheet@@QAEXVResID@@@Z                     	@1182
	?SetImage@PushButton@@QAEPAUHBITMAP__@@PAU2@@Z              	@1183
	?SetImageList@CListViewCtrl@@QAEPAVCImageList@@PAV2@H@Z     	@1184
	?SetImageList@CTreeViewCtrl@@QAEPAVCImageList@@PAV2@H@Z     	@1185
	?SetIndent@CTreeViewCtrl@@QAEXI@Z                           	@1186
	?SetIndex@CImageListObject@@QAEXH@Z                         	@1187
	?SetInitialDir@CStdFileDlg@@QAEXPBD@Z                       	@1188
	?SetItalic@CVFont@@QAEXXZ                                   	@1189
	?SetItem@CListViewCtrl@@QAEHHHIPBDHIIJ@Z                    	@1190
	?SetItem@CListViewCtrl@@QAEHPBUtagLVITEMA@@@Z               	@1191
	?SetItem@CTreeViewCtrl@@QAEHPAU_TREEITEM@@IPBDHHIIJ@Z       	@1192
	?SetItem@CTreeViewCtrl@@QAEHPBUtagTVITEMA@@@Z               	@1193
	?SetItemCount@CListViewCtrl@@QAEXH@Z                        	@1194
	?SetItemData@BaseListBox@@QAEHHK@Z                          	@1195
	?SetItemData@CListViewCtrl@@QAEHHK@Z                        	@1196
	?SetItemData@CTreeViewCtrl@@QAEHPAU_TREEITEM@@K@Z           	@1197
	?SetItemHeight@MeasureItemEvt@@QAEXJ@Z                      	@1198
	?SetItemImage@CTreeViewCtrl@@QAEHPAU_TREEITEM@@HH@Z         	@1199
	?SetItemState@CListViewCtrl@@QAEHHII@Z                      	@1200
	?SetItemState@CListViewCtrl@@QAEHHPAUtagLVITEMA@@@Z         	@1201
	?SetItemState@CTreeViewCtrl@@QAEHPAU_TREEITEM@@II@Z         	@1202
	?SetItemText@CListViewCtrl@@QAEHHHPAD@Z                     	@1203
	?SetItemText@CTreeViewCtrl@@QAEHPAU_TREEITEM@@PBD@Z         	@1204
	?SetItemWidth@MeasureItemEvt@@QAEXJ@Z                       	@1205
	?SetLight@CVFont@@QAEXXZ                                    	@1206
	?SetMinHeight@CStatusBarCtrl@@QAEXH@Z                       	@1207
	?SetModified@CPropertyPage@@QAEXH@Z                         	@1208
	?SetModified@Edit@@QAEXH@Z                                  	@1209
	?SetMultiStyle@MultiLineEdit@@QAEXW4MultiLineStyle@1@@Z     	@1210
	?SetNormal@CVFont@@QAEXXZ                                   	@1211
	?SetOrientation@CVFont@@QAEFF@Z                             	@1212
	?SetOrientation@GaugeBox@@QAEXF@Z                           	@1213
	?SetOverlayImage@CImageList@@QAEHHH@Z                       	@1214
	?SetOwner@CToolBarCtrl@@QAEXPAVWindow@@@Z                   	@1215
	?SetPageSize@ScrollBar@@QAEHIH@Z                            	@1216
	?SetParts@CStatusBarCtrl@@QAEHHPAH@Z                        	@1217
	?SetPointer@AppWindow@@QAEXPAVPointer@@@Z                   	@1218
	?SetPos@CProgressCtrl@@QAEHH@Z                              	@1219
	?SetPos@CSpinButtonCtrl@@QAEHH@Z                            	@1220
	?SetPosition@GaugeBox@@QAEXF@Z                              	@1221
	?SetQuitOnLast@App@@QAEXH@Z                                 	@1222
	?SetRange@CProgressCtrl@@QAEXHH@Z                           	@1223
	?SetRange@CSpinButtonCtrl@@QAEXHH@Z                         	@1224
	?SetRange@GaugeBox@@QAEXF@Z                                 	@1225
	?SetRange@ScrollBar@@QAEXVRange@@@Z                         	@1226
	?SetRows@CToolBarCtrl@@QAEXHHPAUtagRECT@@@Z                 	@1227
	?SetSheetWizardButtons@CPropertyPage@@QAEXK@Z               	@1228
	?SetSimple@CStatusBarCtrl@@QAEHH@Z                          	@1229
	?SetSize@Bitmap@@QAEXVDimension@@@Z                         	@1230
	?SetState@CToolBarCtrl@@QAEHHI@Z                            	@1231
	?SetState@RadioButton@@QAEXH@Z                              	@1232
	?SetStdStyle@BaseListBox@@QAEXW4ListBoxStyle@1@@Z           	@1233
	?SetStdStyle@Edit@@QAEXW4EditStyle@1@@Z                     	@1234
	?SetStdStyle@FixedText@@QAEXW4FixedTextStyle@1@@Z           	@1235
	?SetStep@CProgressCtrl@@QAEHH@Z                             	@1236
	?SetStrikethru@CVFont@@QAEXXZ                               	@1237
	?SetStrobe@Window@@QAEHPAVTimer@@@Z                         	@1238
	?SetStyle@CImageListObject@@QAEXI@Z                         	@1239
	?SetStyle@Control@@QAEXK@Z                                  	@1240
	?SetStyle@Window@@QAEXKH@Z                                  	@1241
	?SetTabSize@FmtTextObject@@QAEXI@Z                          	@1242
	?SetTemplate@CStdFileDlg@@QAEXPAUHINSTANCE__@@PBD@Z         	@1243
	?SetTemplate@CStdFileDlg@@QAEXPAX@Z                         	@1244
	?SetText@CStatusBarCtrl@@QAEHPBDHH@Z                        	@1245
	?SetText@EditWindow@@QAEXPBD@Z                              	@1246
	?SetText@TextControl@@QAEXPBD@Z                             	@1247
	?SetTextBkColor@CListViewCtrl@@QAEHK@Z                      	@1248
	?SetTextColor@CListViewCtrl@@QAEHK@Z                        	@1249
	?SetTextLimit@Edit@@QAEXI@Z                                 	@1250
	?SetTextLimit@EditWindow@@QAEXI@Z                           	@1251
	?SetThumbPos@ScrollBar@@QAEXH@Z                             	@1252
	?SetToolInfo@CToolTipCtrl@@QAEXPAUtagTOOLINFOA@@@Z          	@1253
	?SetToolRect@CToolTipCtrl@@QAEXPAVWindow@@IPBUtagRECT@@@Z   	@1254
	?SetToolTips@CToolBarCtrl@@QAEXPAVCToolTipCtrl@@@Z          	@1255
	?SetTop@BaseListBox@@QAEXI@Z                                	@1256
	?SetType@MessBox@@QAEXH@Z                                   	@1257
	?SetUnderline@CVFont@@QAEXXZ                                	@1258
	?SetUnit@ScrollBar@@QAEXI@Z                                 	@1259
	?SetUp@PrintingDevice@@QAEHPAPAUtagDVTARGETDEVICE@@@Z       	@1260
	?SetVariablePitch@CVFont@@QAEXXZ                            	@1261
	?SetWizardButtons@CPropertySheet@@QAEXK@Z                   	@1262
	?Show@CPropertyPage@@EAEXW4ShowState@@@Z                    	@1263
	?Show@CPropertySheet@@UAEXW4ShowState@@@Z                   	@1264
	?Show@CStdDialog@@QAEHXZ                                    	@1265
	?Show@Control@@QAEXXZ                                       	@1266
	?Show@Cursor@@QAEXXZ                                        	@1267
	?Show@HelpDisplay@@QAEHK@Z                                  	@1268
	?Show@HelpDisplay@@QAEHPBD@Z                                	@1269
	?Show@MessBox@@QAE?AW4StdMessBoxReply@@XZ                   	@1270
	?Show@Pointer@@QAEXXZ                                       	@1271
	?Show@Window@@UAEXW4ShowState@@@Z                           	@1272
	?SortChildren@CTreeViewCtrl@@QAEHPAU_TREEITEM@@@Z           	@1273
	?SortChildrenCB@CTreeViewCtrl@@QAEHPAUtagTVSORTCB@@@Z       	@1274
	?SortItems@CListViewCtrl@@QAEHP6GHJJJ@ZK@Z                  	@1275
	?Start@Printer@@QAEXVRange@@@Z                              	@1276
	?Start@Printer@@QAEXXZ                                      	@1277
	?Start@Selection@@QAEAAJXZ                                  	@1278
	?StartBanding@BandingPrinter@@QAEXVRange@@@Z                	@1279
	?StartBanding@BandingPrinter@@QAEXXZ                        	@1280
	?StepIt@CProgressCtrl@@QAEHXZ                               	@1281
	?Stop@CAnimateCtrl@@QAEHXZ                                  	@1282
	?Strobe@Window@@MAEXVStrobeEvt@@@Z                          	@1283
	?SubItemHitTest@CListViewCtrl@@QAEHPAUtagLVHITTESTINFO@@@Z  	@1284
	?TaskFind@CVLinked_List@@QAEPAXPAX@Z                        	@1285
	?TextPrint@Window@@QAEXPBDVPoint@@@Z                        	@1286
	?TextPrintf@Window@@QAAXPBDZZ                               	@1287
	?TextPrintf@Window@@QAAXVPoint@@PBDZZ                       	@1288
	?TextSize@Window@@QAE?AVDimension@@PBD@Z                    	@1289
	?ToTop@Window@@QAEXXZ                                       	@1290
	?Top@Rectangle@@QAEAAJXZ                                    	@1291
	?Undo@Edit@@QAEHXZ                                          	@1292
	?Undo@EditWindow@@QAEHXZ                                    	@1293
	?Union@Rectangle@@QAE?AV1@AAV1@@Z                           	@1294
	?Update@CListViewCtrl@@QAEHH@Z                              	@1295
	?Update@Window@@QAEXXZ                                      	@1296
	?UpdateCaption@Window@@QAEXPBD@Z                            	@1297
	?UpdateTipText@CToolTipCtrl@@QAEXPBDPAVWindow@@I@Z          	@1298
	?UpdateTipText@CToolTipCtrl@@QAEXVResID@@PAVWindow@@I@Z     	@1299
	?UpperLeft@Rectangle@@QAE?AVPoint@@XZ                       	@1300
	?Validate@FileListBox@@QAE?AW4FlbStatus@@PADH@Z             	@1301
	?VertScroll@ControlWindow@@MAEXVScrollEvt@@@Z               	@1302
	?VertScroll@Window@@MAEXVScrollEvt@@@Z                      	@1303
	?WParam@Event@@QAEAAIXZ                                     	@1304
	?Where@HelpRequestEvt@@QAE?AVPoint@@XZ                      	@1305
	?Where@MouseEvt@@QAE?AVPoint@@XZ                            	@1306
	?Width@Dimension@@QAEAAJXZ                                  	@1307
	?Width@Rectangle@@QAEJXZ                                    	@1308
	?WindowInit@Window@@MAEXVEvent@@@Z                          	@1309
	?WindowRect@Window@@QAE?AVRectangle@@XZ                     	@1310
	?X@Point@@QAEAAJXZ                                          	@1311
	?Y@Point@@QAEAAJXZ                                          	@1312
	?_Find@CVLinked_List@@IAEPAXPAX0@Z                          	@1313
	?_Find@CVLinked_List@@IAEPAXPAX@Z                           	@1314
	?gotFocus@ComboFocusChgEvt@@QAEHXZ                          	@1315
	?gotFocus@EditFocusChgEvt@@QAEHXZ                           	@1316
	?gotFocus@FocusChangeEvt@@QAEHXZ                            	@1317
	?hasFocus@DrawItemEvt@@QAEHXZ                               	@1318
	?isBold@CVFont@@QAEHXZ                                      	@1319
	?isChecked@CheckBox@@QAEHXZ                                 	@1320
	?isControlButton@MouseEvt@@QAEHXZ                           	@1321
	?isDisabled@DrawItemEvt@@QAEHXZ                             	@1322
	?isIconic@Window@@QAEHXZ                                    	@1323
	?isItalic@CVFont@@QAEHXZ                                    	@1324
	?isLeftButton@MouseEvt@@QAEHXZ                              	@1325
	?isLight@CVFont@@QAEHXZ                                     	@1326
	?isMiddleButton@MouseEvt@@QAEHXZ                            	@1327
	?isModified@Edit@@QAEHXZ                                    	@1328
	?isModified@EditWindow@@QAEHXZ                              	@1329
	?isNormal@CVFont@@QAEHXZ                                    	@1330
	?isPitchFixed@CVFont@@QAEHXZ                                	@1331
	?isPitchVariable@CVFont@@QAEHXZ                             	@1332
	?isRightButton@MouseEvt@@QAEHXZ                             	@1333
	?isSelected@DrawItemEvt@@QAEHXZ                             	@1334
	?isShiftButton@MouseEvt@@QAEHXZ                             	@1335
	?isStrikethru@CVFont@@QAEHXZ                                	@1336
	?isSystem@KeyEvt@@QAEHXZ                                    	@1337
	?isUnderline@CVFont@@QAEHXZ                                 	@1338
	?isValid@Printer@@QAEHXZ                                    	@1339
	?isValid@PrintingDevice@@QAEHXZ                             	@1340
	?isVisible@Window@@QAEHXZ                                   	@1341
	?isWindowScroll@ScrollEvt@@QAEHXZ                           	@1342
	?isZoomed@Window@@QAEHXZ                                    	@1343
	?unCheckItem@Menu@@QAEHI@Z                                  	@1344
	CVDebug                                                     	@1345
	_AppDelete                                                  	@1356
	_AppImpFind                                                 	@1357
	_AppInsert                                                  	@1358
	_ControlDispatcher@16                                       	@1346
	_CvDesktopDispatcher@16                                     	@1347
	_CvMdiChildDispatcher@16                                    	@1348
	_CvMdiFrameDispatcher@16                                    	@1349
	_DialogDispatcher@16                                        	@1350
	_EventDispatcher@16                                         	@1351
	_GaugeBoxInit@4                                             	@1352
	_MDIChildDispatcher@16                                      	@1353
	_MdiDefChildDispatcher@16                                   	@1354
	_PropSheetDispatcher@16                                     	@1355

	??0CHotKeyCtrl@@QAE@PAVDialogWindow@@VResID@@@Z             	@1364
	??0CHotKeyCtrl@@QAE@PAVWindow@@VCvID@@VPoint@@VDimension@@K@Z	@1365
	??1CHotKeyCtrl@@QAE@XZ                                      	@1366
	??4CHotKeyCtrl@@QAEAAV0@ABV0@@Z                             	@1367
	?GetHotKey@CHotKeyCtrl@@QBEKXZ                              	@1368
	?GetHotKey@CHotKeyCtrl@@QBEXAAG0@Z                          	@1369
	?SetHotKey@CHotKeyCtrl@@QAEXGG@Z                            	@1370
	?SetRules@CHotKeyCtrl@@QAEXGG@Z                             	@1371

	?Exec@App@@SAHW4ExecType@@PAPAH@Z								@1372
