DESCRIPTION     'TRIAS® Framework'

EXPORTS
	??0Accel@@QAE@PAUHACCEL__@@@Z                               	@1
	??0Accel@@QAE@VResID@@@Z                                    	@2
	??0App@@IAE@XZ                                              	@3
	??0AppWindow@@IAE@XZ                                        	@4
	??0AppWindow@@QAE@ABV0@@Z                                   	@5
	??0BandingPrinter@@IAE@PBDPAVPrintingDevice@@@Z             	@6
	??0BandingPrinter@@QAE@ABV0@@Z                              	@7
	??0BaseListBox@@QAE@PAVDialogWindow@@VResID@@@Z             	@8
	??0BaseListBox@@QAE@PAVWindow@@VCvID@@VPoint@@VDimension@@@Z	@9
	??0BaseListBox@@QAE@XZ                                      	@10
	??0Bitmap@@QAE@PAUHBITMAP__@@@Z                             	@11
	??0Bitmap@@QAE@VDimension@@_NPAG@Z                          	@12
	??0Bitmap@@QAE@VResID@@@Z                                   	@13
	??0Bitmap@@QAE@VResID@@PAU_COLORMAP@@HI@Z                   	@14
	??0BitmapObject@@QAE@ABV0@@Z                                	@15
	??0BitmapObject@@QAE@VPoint@@VDimension@@PAVBitmap@@@Z      	@16
	??0Brush@@QAE@PAUHBRUSH__@@@Z                               	@17
	??0Brush@@QAE@PAVBitmap@@@Z                                 	@18
	??0Brush@@QAE@VColor@@W4StdHatchStyle@@@Z                   	@19
	??0Brush@@QAE@W4StdBrush@@@Z                                	@20
	??0Button@@IAE@PAVDialogWindow@@VResID@@@Z                  	@21
	??0Button@@IAE@PAVWindow@@VCvID@@VPoint@@VDimension@@PBD@Z  	@22
	??0Button@@IAE@XZ                                           	@23
	??0CAnimateCtrl@@QAE@PAVDialogWindow@@VResID@@@Z            	@24
	??0CAnimateCtrl@@QAE@PAVWindow@@VCvID@@VPoint@@VDimension@@K@Z	@25
	??0CClipboard@@QAE@XZ                                       	@26
	??0CDCWindow@@IAE@PAUHDC__@@AAVRectangle@@0@Z               	@27
	??0CDCWindow@@QAE@ABV0@@Z                                   	@28
	??0CImageList@@QAE@ABV0@@Z                                  	@29
	??0CImageList@@QAE@PAU_IMAGELIST@@_N@Z                      	@30
	??0CImageList@@QAE@XZ                                       	@31
	??0CImageListObject@@QAE@ABV0@@Z                            	@32
	??0CImageListObject@@QAE@VPoint@@PAVCImageList@@HI@Z        	@33
	??0CListViewCtrl@@QAE@PAVDialogWindow@@VResID@@@Z           	@34
	??0CListViewCtrl@@QAE@PAVWindow@@VCvID@@VPoint@@VDimension@@K@Z	@35
	??0COpenDialog@@QAE@ABV0@@Z                                 	@36
	??0COpenDialog@@QAE@PAVWindow@@PAD@Z                        	@37
	??0CPolyPolygonObject@@QAE@ABV0@@Z                          	@38
	??0CPolyPolygonObject@@QAE@VPoint@@PBV1@PBHHPAVPen@@_NPAVBrush@@@Z	@39
	??0CPolygonObject@@QAE@ABV0@@Z                              	@40
	??0CPolygonObject@@QAE@VPoint@@PBV1@HPAVPen@@_NPAVBrush@@@Z 	@41
	??0CProgressCtrl@@QAE@PAVDialogWindow@@VResID@@@Z           	@42
	??0CProgressCtrl@@QAE@PAVWindow@@VCvID@@VPoint@@VDimension@@K@Z	@43
	??0CPropertyPage@@IAE@XZ                                    	@44
	??0CPropertyPage@@QAE@ABV0@@Z                               	@45
	??0CPropertyPage@@QAE@VResID@@PBD@Z                         	@46
	??0CPropertySheet@@QAE@ABV0@@Z                              	@47
	??0CPropertySheet@@QAE@PBDPAVWindow@@KI@Z                   	@48
	??0CSaveAsDialog@@QAE@ABV0@@Z                               	@49
	??0CSaveAsDialog@@QAE@PAVWindow@@PAD@Z                      	@50
	??0CSpinButtonCtrl@@QAE@PAVDialogWindow@@VResID@@@Z         	@51
	??0CSpinButtonCtrl@@QAE@PAVWindow@@VCvID@@VPoint@@VDimension@@K@Z	@52
	??0CStatusBarCtrl@@QAE@PAVDialogWindow@@VResID@@@Z          	@53
	??0CStatusBarCtrl@@QAE@PAVWindow@@VCvID@@VPoint@@VDimension@@K@Z	@54
	??0CStdColorDlg@@IAE@XZ                                     	@55
	??0CStdColorDlg@@QAE@ABV0@@Z                                	@56
	??0CStdDialog@@IAE@XZ                                       	@57
	??0CStdDialog@@QAE@ABV0@@Z                                  	@58
	??0CStdFileDlg@@IAE@XZ                                      	@59
	??0CStdFileDlg@@QAE@ABV0@@Z                                 	@60
	??0CToolBarCtrl@@QAE@PAVDialogWindow@@VResID@@@Z            	@61
	??0CToolBarCtrl@@QAE@PAVWindow@@VCvID@@VPoint@@VDimension@@K@Z	@62
	??0CToolTipCtrl@@QAE@PAVWindow@@@Z                          	@63
	??0CTreeViewCtrl@@QAE@PAVDialogWindow@@VResID@@@Z           	@64
	??0CTreeViewCtrl@@QAE@PAVWindow@@VCvID@@VPoint@@VDimension@@K@Z	@65
	??0CVLink@@QAE@PAX0PAV0@@Z                                  	@66
	??0CVLinked_List@@QAE@XZ                                    	@67
	??0CVTable@@QAE@XZ                                          	@68
	??0CheckBox@@QAE@PAVDialogWindow@@VResID@@@Z                	@69
	??0CheckBox@@QAE@PAVWindow@@VCvID@@VPoint@@VDimension@@PBD@Z	@70
	??0ChildAppWindow@@IAE@PAVWindow@@IPADJ@Z                   	@71
	??0ChildAppWindow@@IAE@PAVWindow@@PADJ@Z                    	@72
	??0ChildAppWindow@@IAE@PAVWindow@@PAVAppWindow@@_N@Z        	@73
	??0ChildAppWindow@@QAE@ABV0@@Z                              	@74
	??0Color@@QAE@EEE@Z                                         	@75
	??0Color@@QAE@W4Colors@@@Z                                  	@76
	??0Color@@QAE@XZ                                            	@77
	??0ComboBox@@QAE@PAVDialogWindow@@VResID@@@Z                	@78
	??0ComboBox@@QAE@PAVWindow@@VCvID@@VPoint@@VDimension@@W4ComboStyle@0@@Z	@79
	??0Control@@IAE@PAVDialogWindow@@VResID@@PBD@Z              	@80
	??0Control@@IAE@PAVWindow@@VCvID@@VPoint@@VDimension@@PBDK@Z	@81
	??0Control@@IAE@XZ                                          	@82
	??0ControlWindow@@IAE@PAVControl@@@Z                        	@83
	??0ControlWindow@@IAE@XZ                                    	@84
	??0ControlWindow@@QAE@ABV0@@Z                               	@85
	??0Cursor@@QAE@PAVWindow@@PAVBitmap@@@Z                     	@86
	??0Cursor@@QAE@PAVWindow@@VDimension@@_N@Z                  	@87
	??0CvID@@QAE@I@Z                                            	@88
	??0CvID@@QAE@PBD@Z                                          	@89
	??0DialogWindow@@IAE@PAVWindow@@VResID@@_N@Z                	@90
	??0DialogWindow@@IAE@XZ                                     	@91
	??0DialogWindow@@QAE@ABV0@@Z                                	@92
	??0Dimension@@QAE@JJ@Z                                      	@93
	??0Dimension@@QAE@XZ                                        	@94
	??0DrawObject@@IAE@ABV0@@Z                                  	@95
	??0DrawObject@@IAE@VPoint@@@Z                               	@96
	??0DrawObject@@IAE@XZ                                       	@97
	??0Edit@@IAE@PAVDialogWindow@@VResID@@@Z                    	@98
	??0Edit@@IAE@PAVWindow@@VCvID@@VPoint@@VDimension@@@Z       	@99
	??0Edit@@IAE@XZ                                             	@100
	??0EditWindow@@IAE@PAVDialogWindow@@VResID@@@Z              	@101
	??0EditWindow@@IAE@PAVWindow@@VCvID@@VPoint@@VDimension@@@Z 	@102
	??0EditWindow@@QAE@ABV0@@Z                                  	@103
	??0EllipseObject@@QAE@ABV0@@Z                               	@104
	??0EllipseObject@@QAE@VPoint@@VDimension@@PAVPen@@PAVBrush@@@Z	@105
	??0ErrorBox@@QAE@PBDPAVWindow@@@Z                           	@106
	??0EventContext@@IAE@XZ                                     	@107
	??0EventContext@@QAE@ABV0@@Z                                	@108
	??0FileListBox@@QAE@PAVDialogWindow@@VResID@@1@Z            	@109
	??0FixedIcon@@QAE@PAVDialogWindow@@VResID@@@Z               	@110
	??0FixedIcon@@QAE@PAVWindow@@VCvID@@VPoint@@VResID@@@Z      	@111
	??0FixedText@@QAE@PAVDialogWindow@@VResID@@@Z               	@112
	??0FixedText@@QAE@PAVWindow@@VCvID@@VPoint@@VDimension@@PBD@Z	@113
	??0FmtTextObject@@QAE@ABV0@@Z                               	@114
	??0FmtTextObject@@QAE@VPoint@@PBDPAVFont@@@Z                	@115
	??0FmtTextObject@@QAE@VPoint@@PBDVColor@@PAVFont@@@Z        	@116
	??0Font@@QAE@PAUHFONT__@@@Z                                 	@117
	??0Font@@QAE@W4StdFamily@@VDimension@@PBD@Z                 	@118
	??0Font@@QAE@W4StdFont@@@Z                                  	@119
	??0GaugeBox@@QAE@PAVDialogWindow@@VResID@@@Z                	@120
	??0GaugeBox@@QAE@PAVWindow@@VCvID@@VPoint@@VDimension@@PBD@Z	@121
	??0GroupBox@@QAE@PAVDialogWindow@@VResID@@@Z                	@122
	??0GroupBox@@QAE@PAVWindow@@VCvID@@VPoint@@VDimension@@PBD@Z	@123
	??0HelpDisplay@@QAE@PBD@Z                                   	@124
	??0HorizScrollBar@@QAE@PAVDialogWindow@@VResID@@@Z          	@125
	??0HorizScrollBar@@QAE@PAVWindow@@VCvID@@VPoint@@VDimension@@@Z	@126
	??0Icon@@QAE@PAUHICON__@@@Z                                 	@127
	??0Icon@@QAE@VResID@@@Z                                     	@128
	??0Icon@@QAE@W4StdIcon@@@Z                                  	@129
	??0InfoBox@@QAE@PBD0PAVWindow@@@Z                           	@130
	??0LineObject@@QAE@ABV0@@Z                                  	@131
	??0LineObject@@QAE@VPoint@@0PAVPen@@@Z                      	@132
	??0ListBox@@QAE@PAVDialogWindow@@VResID@@@Z                 	@133
	??0ListBox@@QAE@PAVWindow@@VCvID@@VPoint@@VDimension@@@Z    	@134
	??0ListBox@@QAE@XZ                                          	@135
	??0Menu@@IAE@PAX@Z                                          	@136
	??0Menu@@QAE@PAUHMENU__@@@Z                                 	@137
	??0Menu@@QAE@VResID@@@Z                                     	@138
	??0Menu@@QAE@XZ                                             	@139
	??0MessBox@@QAE@PBD0PAVWindow@@@Z                           	@140
	??0ModeLessDialog@@IAE@PAVWindow@@VResID@@@Z                	@141
	??0ModeLessDialog@@QAE@ABV0@@Z                              	@142
	??0MultiLineEdit@@QAE@PAVDialogWindow@@VResID@@@Z           	@143
	??0MultiLineEdit@@QAE@PAVWindow@@VCvID@@VPoint@@VDimension@@@Z	@144
	??0MultiSelListBox@@QAE@PAVDialogWindow@@VResID@@@Z         	@145
	??0MultiSelListBox@@QAE@PAVWindow@@VCvID@@VPoint@@VDimension@@@Z	@146
	??0MultiSelListBox@@QAE@XZ                                  	@147
	??0MultiSelTabularListBox@@QAE@PAVDialogWindow@@VResID@@I@Z 	@148
	??0MultiSelTabularListBox@@QAE@PAVWindow@@VCvID@@VPoint@@VDimension@@I@Z	@149
	??0Pair@@IAE@JJ@Z                                           	@150
	??0Pair@@IAE@XZ                                             	@151
	??0Pen@@QAE@PAUHPEN__@@@Z                                   	@152
	??0Pen@@QAE@W4StdLineStyle@@IVColor@@@Z                     	@153
	??0Point@@QAE@JJ@Z                                          	@154
	??0Point@@QAE@XZ                                            	@155
	??0Pointer@@QAE@PAUHICON__@@@Z                              	@156
	??0Pointer@@QAE@PBDW4StdPointer@@@Z                         	@157
	??0Pointer@@QAE@VResID@@@Z                                  	@158
	??0Pointer@@QAE@W4StdPointer@@@Z                            	@159
	??0Printer@@IAE@PBDPAVPrintingDevice@@@Z                    	@160
	??0Printer@@QAE@ABV0@@Z                                     	@161
	??0PrintingDevice@@QAE@PBD@Z                                	@162
	??0PushButton@@QAE@PAVDialogWindow@@VResID@@@Z              	@163
	??0PushButton@@QAE@PAVWindow@@VCvID@@VPoint@@VDimension@@PBD@Z	@164
	??0RadioButton@@QAE@PAVDialogWindow@@VResID@@@Z             	@165
	??0RadioButton@@QAE@PAVWindow@@VCvID@@VPoint@@VDimension@@PBD@Z	@166
	??0Range@@QAE@JJ@Z                                          	@167
	??0Range@@QAE@XZ                                            	@168
	??0Rectangle@@QAE@JJJJ@Z                                    	@169
	??0Rectangle@@QAE@VPoint@@0@Z                               	@170
	??0Rectangle@@QAE@VPoint@@VDimension@@@Z                    	@171
	??0Rectangle@@QAE@XZ                                        	@172
	??0RectangleObject@@QAE@ABV0@@Z                             	@173
	??0RectangleObject@@QAE@VPoint@@VDimension@@PAVPen@@PAVBrush@@@Z	@174
	??0ResID@@QAE@I@Z                                           	@175
	??0ResID@@QAE@IPAVResourceFile@@@Z                          	@176
	??0ResID@@QAE@PBDPAVResourceFile@@@Z                        	@177
	??0ResString@@QAE@ABV0@@Z                                   	@178
	??0ResString@@QAE@VResID@@I@Z                               	@179
	??0ResourceFile@@QAE@PBD_N@Z                                	@180
	??0ScrollBar@@IAE@XZ                                        	@181
	??0ScrollBar@@QAE@PAVDialogWindow@@VResID@@@Z               	@182
	??0ScrollBar@@QAE@PAVWindow@@VCvID@@VPoint@@VDimension@@@Z  	@183
	??0Selection@@QAE@JJ@Z                                      	@184
	??0Selection@@QAE@XZ                                        	@185
	??0ShapeObject@@QAE@ABV0@@Z                                 	@186
	??0ShapeObject@@QAE@VPoint@@VDimension@@PAVPen@@PAVBrush@@@Z	@187
	??0ShellWindow@@IAE@XZ                                      	@188
	??0ShellWindow@@QAE@ABV0@@Z                                 	@189
	??0SingleLineEdit@@QAE@PAVDialogWindow@@VResID@@@Z          	@190
	??0SingleLineEdit@@QAE@PAVWindow@@PAUHWND__@@@Z             	@191
	??0SingleLineEdit@@QAE@PAVWindow@@VCvID@@VPoint@@VDimension@@@Z	@192
	??0SysMenu@@IAE@PAVWindow@@@Z                               	@193
	??0SystemApp@@QAE@IPAUHINSTANCE__@@0PBDH@Z                  	@194
	??0TabularListBox@@QAE@PAVDialogWindow@@VResID@@I@Z         	@195
	??0TabularListBox@@QAE@PAVWindow@@VCvID@@VPoint@@VDimension@@I@Z	@196
	??0TextControl@@IAE@PAVDialogWindow@@VResID@@@Z             	@197
	??0TextControl@@IAE@PAVWindow@@VCvID@@VPoint@@VDimension@@@Z	@198
	??0TextControl@@IAE@XZ                                      	@199
	??0TextObject@@QAE@ABV0@@Z                                  	@200
	??0TextObject@@QAE@VPoint@@PBDPAVFont@@@Z                   	@201
	??0TextObject@@QAE@VPoint@@PBDVColor@@PAVFont@@@Z           	@202
	??0TopAppWindow@@IAE@JPBD@Z                                 	@203
	??0TopAppWindow@@IAE@PAVAppWindow@@@Z                       	@204
	??0TopAppWindow@@QAE@ABV0@@Z                                	@205
	??0VertScrollBar@@QAE@PAVDialogWindow@@VResID@@@Z           	@206
	??0VertScrollBar@@QAE@PAVWindow@@VCvID@@VPoint@@VDimension@@@Z	@207
	??0WarningBox@@QAE@PBD0PAVWindow@@@Z                        	@208
	??0Window@@IAE@XZ                                           	@209
	??0Window@@QAE@ABV0@@Z                                      	@210
	??0Window@@QAE@PAUHWND__@@@Z                                	@211
	??0WndHorzScrollBar@@QAE@PAVWindow@@@Z                      	@212
	??0WndVertScrollBar@@QAE@PAVWindow@@@Z                      	@213
	??1Accel@@QAE@XZ                                            	@214
	??1App@@QAE@XZ                                              	@215
	??1AppWindow@@UAE@XZ                                        	@216
	??1BandingPrinter@@UAE@XZ                                   	@217
	??1BaseListBox@@QAE@XZ                                      	@218
	??1Bitmap@@QAE@XZ                                           	@219
	??1BitmapObject@@UAE@XZ                                     	@220
	??1Brush@@QAE@XZ                                            	@221
	??1Button@@QAE@XZ                                           	@222
	??1CAnimateCtrl@@QAE@XZ                                     	@223
	??1CClipboard@@QAE@XZ                                       	@224
	??1CDCWindow@@UAE@XZ                                        	@225
	??1CImageList@@UAE@XZ                                       	@226
	??1CImageListObject@@UAE@XZ                                 	@227
	??1CListViewCtrl@@QAE@XZ                                    	@228
	??1COpenDialog@@UAE@XZ                                      	@229
	??1CPolyPolygonObject@@UAE@XZ                               	@230
	??1CPolygonObject@@UAE@XZ                                   	@231
	??1CProgressCtrl@@QAE@XZ                                    	@232
	??1CPropertyPage@@UAE@XZ                                    	@233
	??1CPropertySheet@@UAE@XZ                                   	@234
	??1CSaveAsDialog@@UAE@XZ                                    	@235
	??1CSpinButtonCtrl@@QAE@XZ                                  	@236
	??1CStatusBarCtrl@@QAE@XZ                                   	@237
	??1CStdColorDlg@@UAE@XZ                                     	@238
	??1CStdDialog@@UAE@XZ                                       	@239
	??1CStdFileDlg@@UAE@XZ                                      	@240
	??1CToolBarCtrl@@QAE@XZ                                     	@241
	??1CToolTipCtrl@@QAE@XZ                                     	@242
	??1CTreeViewCtrl@@QAE@XZ                                    	@243
	??1CVLink@@QAE@XZ                                           	@244
	??1CheckBox@@QAE@XZ                                         	@245
	??1ChildAppWindow@@UAE@XZ                                   	@246
	??1ComboBox@@QAE@XZ                                         	@247
	??1Control@@QAE@XZ                                          	@248
	??1ControlWindow@@UAE@XZ                                    	@249
	??1Cursor@@QAE@XZ                                           	@250
	??1DialogWindow@@UAE@XZ                                     	@251
	??1DrawObject@@UAE@XZ                                       	@252
	??1Edit@@QAE@XZ                                             	@253
	??1EditWindow@@UAE@XZ                                       	@254
	??1EllipseObject@@UAE@XZ                                    	@255
	??1ErrorBox@@QAE@XZ                                         	@256
	??1EventContext@@MAE@XZ                                     	@257
	??1FileListBox@@QAE@XZ                                      	@258
	??1FixedIcon@@QAE@XZ                                        	@259
	??1FixedText@@QAE@XZ                                        	@260
	??1FmtTextObject@@UAE@XZ                                    	@261
	??1Font@@QAE@XZ                                             	@262
	??1GaugeBox@@QAE@XZ                                         	@263
	??1GroupBox@@QAE@XZ                                         	@264
	??1HelpDisplay@@QAE@XZ                                      	@265
	??1HorizScrollBar@@QAE@XZ                                   	@266
	??1Icon@@QAE@XZ                                             	@267
	??1InfoBox@@QAE@XZ                                          	@268
	??1LineObject@@UAE@XZ                                       	@269
	??1ListBox@@QAE@XZ                                          	@270
	??1Menu@@QAE@XZ                                             	@271
	??1MessBox@@QAE@XZ                                          	@272
	??1ModeLessDialog@@UAE@XZ                                   	@273
	??1MultiLineEdit@@QAE@XZ                                    	@274
	??1MultiSelListBox@@QAE@XZ                                  	@275
	??1MultiSelTabularListBox@@QAE@XZ                           	@276
	??1Pen@@QAE@XZ                                              	@277
	??1Pointer@@QAE@XZ                                          	@278
	??1Printer@@UAE@XZ                                          	@279
	??1PrintingDevice@@QAE@XZ                                   	@280
	??1PushButton@@QAE@XZ                                       	@281
	??1RadioButton@@QAE@XZ                                      	@282
	??1RectangleObject@@UAE@XZ                                  	@283
	??1ResString@@QAE@XZ                                        	@284
	??1ResourceFile@@QAE@XZ                                     	@285
	??1ScrollBar@@QAE@XZ                                        	@286
	??1ShapeObject@@UAE@XZ                                      	@287
	??1ShellWindow@@UAE@XZ                                      	@288
	??1SingleLineEdit@@QAE@XZ                                   	@289
	??1SysMenu@@QAE@XZ                                          	@290
	??1TabularListBox@@QAE@XZ                                   	@291
	??1TextControl@@QAE@XZ                                      	@292
	??1TextObject@@UAE@XZ                                       	@293
	??1TopAppWindow@@UAE@XZ                                     	@294
	??1VertScrollBar@@QAE@XZ                                    	@295
	??1WarningBox@@QAE@XZ                                       	@296
	??1Window@@UAE@XZ                                           	@297
	??1WndHorzScrollBar@@QAE@XZ                                 	@298
	??1WndVertScrollBar@@QAE@XZ                                 	@299
	??4Accel@@QAEAAV0@ABV0@@Z                                   	@300
	??4AppWindow@@QAEAAV0@ABV0@@Z                               	@301
	??4BandingPrinter@@QAEAAV0@ABV0@@Z                          	@302
	??4BaseListBox@@QAEAAV0@ABV0@@Z                             	@303
	??4Bitmap@@QAEAAV0@ABV0@@Z                                  	@304
	??4BitmapObject@@QAEAAV0@ABV0@@Z                            	@305
	??4Brush@@QAEAAV0@ABV0@@Z                                   	@306
	??4Button@@QAEAAV0@ABV0@@Z                                  	@307
	??4CAnimateCtrl@@QAEAAV0@ABV0@@Z                            	@308
	??4CClipboard@@QAEAAV0@ABV0@@Z                              	@309
	??4CDCExposeEvt@@QAEAAV0@ABV0@@Z                            	@310
	??4CDCWindow@@QAEAAV0@ABV0@@Z                               	@311
	??4CImageList@@QAEAAV0@ABV0@@Z                              	@312
	??4CImageListObject@@QAEAAV0@ABV0@@Z                        	@313
	??4CListViewCtrl@@QAEAAV0@ABV0@@Z                           	@314
	??4COpenDialog@@QAEAAV0@ABV0@@Z                             	@315
	??4CPolyPolygonObject@@QAEAAV0@ABV0@@Z                      	@316
	??4CPolygonObject@@QAEAAV0@ABV0@@Z                          	@317
	??4CProgressCtrl@@QAEAAV0@ABV0@@Z                           	@318
	??4CPropertyPage@@QAEAAV0@ABV0@@Z                           	@319
	??4CPropertySheet@@QAEAAV0@ABV0@@Z                          	@320
	??4CSaveAsDialog@@QAEAAV0@ABV0@@Z                           	@321
	??4CSpinButtonCtrl@@QAEAAV0@ABV0@@Z                         	@322
	??4CStatusBarCtrl@@QAEAAV0@ABV0@@Z                          	@323
	??4CStdColorDlg@@QAEAAV0@ABV0@@Z                            	@324
	??4CStdDialog@@QAEAAV0@ABV0@@Z                              	@325
	??4CStdFileDlg@@QAEAAV0@ABV0@@Z                             	@326
	??4CToolBarCtrl@@QAEAAV0@ABV0@@Z                            	@327
	??4CToolTipCtrl@@QAEAAV0@ABV0@@Z                            	@328
	??4CTreeViewCtrl@@QAEAAV0@ABV0@@Z                           	@329
	??4CVLink@@QAEAAV0@ABV0@@Z                                  	@330
	??4CVLinked_List@@QAEAAV0@ABV0@@Z                           	@331
	??4CVTable@@QAEAAV0@ABV0@@Z                                 	@332
	??4CheckBox@@QAEAAV0@ABV0@@Z                                	@333
	??4ChildAppWindow@@QAEAAV0@ABV0@@Z                          	@334
	??4Color@@QAEAAV0@ABV0@@Z                                   	@335
	??4ComboBox@@QAEAAV0@ABV0@@Z                                	@336
	??4ComboFocusChgEvt@@QAEAAV0@ABV0@@Z                        	@337
	??4Control@@QAEAAV0@ABV0@@Z                                 	@338
	??4ControlEvt@@QAEAAV0@ABV0@@Z                              	@339
	??4ControlWindow@@QAEAAV0@ABV0@@Z                           	@340
	??4Cursor@@QAEAAV0@ABV0@@Z                                  	@341
	??4CvID@@QAEAAV0@ABV0@@Z                                    	@342
	??4DeleteItemEvt@@QAEAAV0@ABV0@@Z                           	@343
	??4DialogWindow@@QAEAAV0@ABV0@@Z                            	@344
	??4Dimension@@QAEAAV0@ABV0@@Z                               	@345
	??4DrawItemEvt@@QAEAAV0@ABV0@@Z                             	@346
	??4DrawObject@@IAEAAV0@ABV0@@Z                              	@347
	??4Edit@@QAEAAV0@ABV0@@Z                                    	@348
	??4EditFocusChgEvt@@QAEAAV0@ABV0@@Z                         	@349
	??4EditWindow@@QAEAAV0@ABV0@@Z                              	@350
	??4EllipseObject@@QAEAAV0@ABV0@@Z                           	@351
	??4ErrorBox@@QAEAAV0@ABV0@@Z                                	@352
	??4Event@@QAEAAV0@ABV0@@Z                                   	@353
	??4EventContext@@QAEAAV0@ABV0@@Z                            	@354
	??4ExposeEvt@@QAEAAV0@ABV0@@Z                               	@355
	??4FileListBox@@QAEAAV0@ABV0@@Z                             	@356
	??4FixedIcon@@QAEAAV0@ABV0@@Z                               	@357
	??4FixedText@@QAEAAV0@ABV0@@Z                               	@358
	??4FmtTextObject@@QAEAAV0@ABV0@@Z                           	@359
	??4FocusChangeEvt@@QAEAAV0@ABV0@@Z                          	@360
	??4Font@@QAEAAV0@ABV0@@Z                                    	@361
	??4GaugeBox@@QAEAAV0@ABV0@@Z                                	@362
	??4GroupBox@@QAEAAV0@ABV0@@Z                                	@363
	??4HelpDisplay@@QAEAAV0@ABV0@@Z                             	@364
	??4HelpRequestEvt@@QAEAAV0@ABV0@@Z                          	@365
	??4HorizScrollBar@@QAEAAV0@ABV0@@Z                          	@366
	??4Icon@@QAEAAV0@ABV0@@Z                                    	@367
	??4InfoBox@@QAEAAV0@ABV0@@Z                                 	@368
	??4KeyEvt@@QAEAAV0@ABV0@@Z                                  	@369
	??4LineObject@@QAEAAV0@ABV0@@Z                              	@370
	??4ListBox@@QAEAAV0@ABV0@@Z                                 	@371
	??4MeasureItemEvt@@QAEAAV0@ABV0@@Z                          	@372
	??4Menu@@QAEAAV0@ABV0@@Z                                    	@373
	??4MenuCommandEvt@@QAEAAV0@ABV0@@Z                          	@374
	??4MenuInitEvt@@QAEAAV0@ABV0@@Z                             	@375
	??4MenuSelectEvt@@QAEAAV0@ABV0@@Z                           	@376
	??4MessBox@@QAEAAV0@ABV0@@Z                                 	@377
	??4ModeLessDialog@@QAEAAV0@ABV0@@Z                          	@378
	??4MouseEvt@@QAEAAV0@ABV0@@Z                                	@379
	??4MoveEvt@@QAEAAV0@ABV0@@Z                                 	@380
	??4MultiLineEdit@@QAEAAV0@ABV0@@Z                           	@381
	??4MultiSelListBox@@QAEAAV0@ABV0@@Z                         	@382
	??4MultiSelTabularListBox@@QAEAAV0@ABV0@@Z                  	@383
	??4NotifyEvt@@QAEAAV0@ABV0@@Z                               	@384
	??4OwnerDrawEvt@@QAEAAV0@ABV0@@Z                            	@385
	??4Pair@@QAEAAV0@ABV0@@Z                                    	@386
	??4Pen@@QAEAAV0@ABV0@@Z                                     	@387
	??4Point@@QAEAAV0@ABV0@@Z                                   	@388
	??4Pointer@@QAEAAV0@ABV0@@Z                                 	@389
	??4Printer@@QAEAAV0@ABV0@@Z                                 	@390
	??4PrinterErrorEvt@@QAEAAV0@ABV0@@Z                         	@391
	??4PrinterExposeEvt@@QAEAAV0@ABV0@@Z                        	@392
	??4PrintingDevice@@QAEAAV0@ABV0@@Z                          	@393
	??4PushButton@@QAEAAV0@ABV0@@Z                              	@394
	??4RadioButton@@QAEAAV0@ABV0@@Z                             	@395
	??4Range@@QAEAAV0@ABV0@@Z                                   	@396
	??4ReSizeEvt@@QAEAAV0@ABV0@@Z                               	@397
	??4Rectangle@@QAEAAV0@ABV0@@Z                               	@398
	??4RectangleObject@@QAEAAV0@ABV0@@Z                         	@399
	??4ResID@@QAEAAV0@ABV0@@Z                                   	@400
	??4ResString@@QAEAAV0@ABV0@@Z                               	@401
	??4ResourceFile@@QAEAAV0@ABV0@@Z                            	@402
	??4ScrollBar@@QAEAAV0@ABV0@@Z                               	@403
	??4ScrollEvt@@QAEAAV0@ABV0@@Z                               	@404
	??4Selection@@QAEAAV0@ABV0@@Z                               	@405
	??4ShapeObject@@QAEAAV0@ABV0@@Z                             	@406
	??4ShellWindow@@QAEAAV0@ABV0@@Z                             	@407
	??4SingleLineEdit@@QAEAAV0@ABV0@@Z                          	@408
	??4SysMenu@@QAEAAV0@ABV0@@Z                                 	@409
	??4TabularListBox@@QAEAAV0@ABV0@@Z                          	@410
	??4TextControl@@QAEAAV0@ABV0@@Z                             	@411
	??4TextObject@@QAEAAV0@ABV0@@Z                              	@412
	??4ToolTipEvt@@QAEAAV0@ABV0@@Z                              	@413
	??4TopAppWindow@@QAEAAV0@ABV0@@Z                            	@414
	??4VertScrollBar@@QAEAAV0@ABV0@@Z                           	@415
	??4WarningBox@@QAEAAV0@ABV0@@Z                              	@416
	??4Window@@QAEAAV0@ABV0@@Z                                  	@417
	??4WndHorzScrollBar@@QAEAAV0@ABV0@@Z                        	@418
	??4WndVertScrollBar@@QAEAAV0@ABV0@@Z                        	@419
	??8CvID@@QAE_NAAV0@@Z                                       	@420
	??8CvID@@QAE_NI@Z                                           	@421
	??8CvID@@QAE_NPBD@Z                                         	@422
	??BCvID@@QAEIXZ                                             	@423
	??BCvID@@QAEPBDXZ                                           	@424
	??BResString@@QAEPBDXZ                                      	@425
	??_7AppWindow@@6B@                                          	@426
	??_7BandingPrinter@@6B@                                     	@427
	??_7BitmapObject@@6B@                                       	@428
	??_7CDCWindow@@6B@                                          	@429
	??_7CImageList@@6B@                                         	@430
	??_7CImageListObject@@6B@                                   	@431
	??_7COpenDialog@@6B@                                        	@432
	??_7CPolyPolygonObject@@6B@                                 	@433
	??_7CPolygonObject@@6B@                                     	@434
	??_7CPropertyPage@@6B@                                      	@435
	??_7CPropertySheet@@6B@                                     	@436
	??_7CSaveAsDialog@@6B@                                      	@437
	??_7CStdColorDlg@@6B@                                       	@438
	??_7CStdDialog@@6B@                                         	@439
	??_7CStdFileDlg@@6B@                                        	@440
	??_7ChildAppWindow@@6B@                                     	@441
	??_7ControlWindow@@6B@                                      	@442
	??_7DialogWindow@@6B@                                       	@443
	??_7DrawObject@@6B@                                         	@444
	??_7EditWindow@@6B@                                         	@445
	??_7EllipseObject@@6B@                                      	@446
	??_7EventContext@@6B@                                       	@447
	??_7FmtTextObject@@6B@                                      	@448
	??_7LineObject@@6B@                                         	@449
	??_7ModeLessDialog@@6B@                                     	@450
	??_7Printer@@6B@                                            	@451
	??_7RectangleObject@@6B@                                    	@452
	??_7ShapeObject@@6B@                                        	@453
	??_7ShellWindow@@6B@                                        	@454
	??_7TextObject@@6B@                                         	@455
	??_7TopAppWindow@@6B@                                       	@456
	??_7Window@@6B@                                             	@457
	??_FBandingPrinter@@QAEXXZ                                  	@458
	??_FBrush@@QAEXXZ                                           	@459
	??_FIcon@@QAEXXZ                                            	@460
	??_FPointer@@QAEXXZ                                         	@461
	??_FPrinter@@QAEXXZ                                         	@462
	??_FPrintingDevice@@QAEXXZ                                  	@463
	??_FTopAppWindow@@QAEXXZ                                    	@464
	?ASCIIChar@KeyEvt@@QAEDXZ                                   	@465
	?Abort@Printer@@QAEXXZ                                      	@466
	?Activate@CToolTipCtrl@@QAEX_N@Z                            	@467
	?Activate@Window@@MAEXVEvent@@@Z                            	@468
	?Add@CImageList@@QAEHPAVBitmap@@0@Z                         	@469
	?Add@CImageList@@QAEHPAVBitmap@@K@Z                         	@470
	?Add@CImageList@@QAEHPAVIcon@@@Z                            	@471
	?AddBitmap@CToolBarCtrl@@QAEHHPAVBitmap@@@Z                 	@472
	?AddBitmap@CToolBarCtrl@@QAEHHVResID@@@Z                    	@473
	?AddButtons@CToolBarCtrl@@QAE_NHPAU_TBBUTTON@@@Z            	@474
	?AddFlags@CStdFileDlg@@QAEXJ@Z                              	@475
	?AddPage@CPropertySheet@@QAEIPAU_PSP@@@Z                    	@476
	?AddPage@CPropertySheet@@QAEIPAVCPropertyPage@@@Z           	@477
	?AddRow@MultiSelTabularListBox@@QAAHHZZ                     	@478
	?AddRow@TabularListBox@@QAAHHZZ                             	@479
	?AddString@BaseListBox@@QAEHPBDH@Z                          	@480
	?AddString@CToolBarCtrl@@QAEHVResID@@@Z                     	@481
	?AddStrings@CToolBarCtrl@@QAEHPBD@Z                         	@482
	?AddTool@CToolTipCtrl@@QAE_NPAVWindow@@PBDPBUtagRECT@@I@Z   	@483
	?AddTool@CToolTipCtrl@@QAE_NPAVWindow@@VResID@@PBUtagRECT@@I@Z	@484
	?Addr@ResString@@QAEPBDXZ                                   	@485
	?AppendItem@Menu@@QAE_NIPAVBitmap@@@Z                       	@486
	?AppendItem@Menu@@QAE_NIPBD@Z                               	@487
	?AppendItem@Menu@@QAE_NPAV1@PBD@Z                           	@488
	?AppendSeparator@Menu@@QAE_NXZ                              	@489
	?ApproximateViewRect@CListViewCtrl@@QAEKHHH@Z               	@490
	?Arrange@CListViewCtrl@@QAE_NI@Z                            	@491
	?Arrange@ShellWindow@@QAEXW4ArrangeStyle@1@@Z               	@492
	?Attach@CImageList@@QAE_NPAU_IMAGELIST@@@Z                  	@493
	?AttachIdleProc@App@@QAEP6A_NJ@ZP6A_NJ@Z@Z                  	@494
	?AttachPreTranslateProc@App@@QAEP6A_NPAUtagMSG@@@ZP6A_N0@Z@Z	@495
	?AutoSize@CToolBarCtrl@@QAEXXZ                              	@496
	?BeginDrag@CImageList@@QAE_NHVPoint@@@Z                     	@497
	?Blue@Color@@QAEAAEXZ                                       	@498
	?Bottom@Rectangle@@QAEAAJXZ                                 	@499
	?BoundingBox@BitmapObject@@UAE?AVRectangle@@XZ              	@500
	?BoundingBox@DrawObject@@UAE?AVRectangle@@XZ                	@501
	?BoundingBox@LineObject@@UAE?AVRectangle@@XZ                	@502
	?BoundingBox@ShapeObject@@UAE?AVRectangle@@XZ               	@503
	?BoundingBox@TextObject@@UAE?AVRectangle@@XZ                	@504
	?ButtonClick@Window@@MAEXVControlEvt@@@Z                    	@505
	?ButtonDblClk@Window@@MAEXVControlEvt@@@Z                   	@506
	?ButtonID@MouseEvt@@QAE?AW4Buttons@@XZ                      	@507
	?CallAppExec@@YAHW4ExecType@@@Z                             	@508
	?CanUndo@Edit@@QAE_NXZ                                      	@509
	?CancelStrobe@Window@@QAE_NPAVTimer@@@Z                     	@510
	?CancelToClose@CPropertyPage@@QAEXXZ                        	@511
	?CanvasErase@Window@@QAEXAAVRectangle@@@Z                   	@512
	?CanvasErase@Window@@QAEXXZ                                 	@513
	?CanvasRect@Window@@QAE?AVRectangle@@XZ                     	@514
	?CentreWindow@@YAXPAUHWND__@@0@Z                            	@515
	?CentreWindow@@YAXPAVWindow@@0@Z                            	@516
	?ChangeAccel@Window@@QAEPAVAccel@@PAV2@@Z                   	@517
	?ChangeBackground@Control@@QAEPAVBrush@@PAV2@@Z             	@518
	?ChangeBackground@Window@@QAEPAVBrush@@PAV2@@Z              	@519
	?ChangeBlinkTime@Cursor@@QAEXI@Z                            	@520
	?ChangeBrush@ShapeObject@@QAEPAVBrush@@PAV2@@Z              	@521
	?ChangeBrush@Window@@QAEPAVBrush@@PAV2@@Z                   	@522
	?ChangeCurrentIndex@ListBox@@QAE_NH@Z                       	@523
	?ChangeEditSelection@ComboBox@@QAEXVSelection@@@Z           	@524
	?ChangeFont@DialogWindow@@QAEPAVFont@@PAV2@_N@Z             	@525
	?ChangeFont@TextControl@@QAEPAVFont@@PAV2@_N@Z              	@526
	?ChangeFont@Window@@QAEPAVFont@@PAV2@@Z                     	@527
	?ChangeMenuA@Window@@QAEPAVMenu@@PAV2@@Z                    	@528
	?ChangePen@LineObject@@QAEPAVPen@@PAV2@@Z                   	@529
	?ChangePen@ShapeObject@@QAEPAVPen@@PAV2@@Z                  	@530
	?ChangePen@Window@@QAEPAVPen@@PAV2@@Z                       	@531
	?ChangePointer@Window@@QAEPAVPointer@@PAV2@@Z               	@532
	?ChangePos@Cursor@@QAEXVPoint@@@Z                           	@533
	?ChangePos@Pointer@@QAEXVPoint@@@Z                          	@534
	?ChangePosition@Control@@QAE?AVPoint@@V2@@Z                 	@535
	?ChangePosition@ControlWindow@@QAE?AVPoint@@V2@@Z           	@536
	?ChangePosition@DrawObject@@UAE?AVPoint@@V2@@Z              	@537
	?ChangePosition@LineObject@@UAE?AVPoint@@V2@@Z              	@538
	?ChangePosition@Window@@QAE?AVPoint@@V2@@Z                  	@539
	?ChangeRop@DrawObject@@UAE?AW4RopType@@W42@@Z               	@540
	?ChangeSelected@MultiSelListBox@@QAE_NH_N@Z                 	@541
	?ChangeSelected@MultiSelListBox@@QAE_NVRange@@_N@Z          	@542
	?ChangeSelection@Edit@@QAEXVSelection@@@Z                   	@543
	?ChangeSelection@EditWindow@@QAEXVSelection@@@Z             	@544
	?ChangeSize@BitmapObject@@UAE?AVDimension@@V2@@Z            	@545
	?ChangeSize@Control@@QAE?AVDimension@@V2@@Z                 	@546
	?ChangeSize@ControlWindow@@QAE?AVDimension@@V2@@Z           	@547
	?ChangeSize@DrawObject@@UAE?AVDimension@@V2@@Z              	@548
	?ChangeSize@LineObject@@UAE?AVDimension@@V2@@Z              	@549
	?ChangeSize@ShapeObject@@UAE?AVDimension@@V2@@Z             	@550
	?ChangeSize@Window@@QAE?AVDimension@@V2@@Z                  	@551
	?ChangeTextColor@TextControl@@QAE?AVColor@@V2@@Z            	@552
	?CheckButton@CToolBarCtrl@@QAE_NH_N@Z                       	@553
	?CheckItem@Menu@@QAE_NI@Z                                   	@554
	?Clear@BaseListBox@@QAEXXZ                                  	@555
	?Clear@CClipboard@@QAEXXZ                                   	@556
	?ClearSelected@MultiSelListBox@@QAE_NXZ                     	@557
	?Close@CAnimateCtrl@@QAE_NXZ                                	@558
	?Close@Window@@MAEXVEvent@@@Z                               	@559
	?CommandToIndex@CToolBarCtrl@@QAEII@Z                       	@560
	?CompareItem@Window@@MAEHVOwnerDrawEvt@@PAX1@Z              	@561
	?Confine@Pointer@@QAEXVRectangle@@@Z                        	@562
	?CreateDragImage@CListViewCtrl@@QAEPAVCImageList@@HPAUtagPOINT@@@Z	@563
	?CreateDragImage@CTreeViewCtrl@@QAEPAVCImageList@@PAU_TREEITEM@@@Z	@564
	?CreateList@CImageList@@QAE_NAAV1@H0HHH@Z                   	@565
	?CreateList@CImageList@@QAE_NHH_NHH@Z                       	@566
	?CreateList@CImageList@@QAE_NVResID@@HHK@Z                  	@567
	?CreatePage@CPropertyPage@@IAEPAU_PSP@@XZ                   	@568
	?Customize@CToolBarCtrl@@QAEXXZ                             	@569
	?DeActivate@Window@@MAEXVEvent@@@Z                          	@570
	?Default@EventContext@@MAEXVEvent@@@Z                       	@571
	?DelString@BaseListBox@@QAE_NH@Z                            	@572
	?DelTool@CToolTipCtrl@@QAEXPAVWindow@@I@Z                   	@573
	?Delete@CVLinked_List@@QAEXPAX0@Z                           	@574
	?Delete@CVLinked_List@@QAEXPAX@Z                            	@575
	?Delete@CVLinked_List@@QAEXXZ                               	@576
	?DeleteAllItems@CListViewCtrl@@QAE_NXZ                      	@577
	?DeleteAllItems@CTreeViewCtrl@@QAE_NXZ                      	@578
	?DeleteButton@CToolBarCtrl@@QAE_NH@Z                        	@579
	?DeleteColumn@CListViewCtrl@@QAE_NH@Z                       	@580
	?DeleteEditSelected@ComboBox@@QAEX_N@Z                      	@581
	?DeleteImageList@CImageList@@QAE_NXZ                        	@582
	?DeleteItem@CListViewCtrl@@QAE_NH@Z                         	@583
	?DeleteItem@CTreeViewCtrl@@QAE_NPAU_TREEITEM@@@Z            	@584
	?DeleteItem@Menu@@QAE_NI@Z                                  	@585
	?DeleteItem@Menu@@QAE_NPAV1@@Z                              	@586
	?DeleteItem@Window@@MAE_NVDeleteItemEvt@@@Z                 	@587
	?DeleteSelected@Edit@@QAEX_N@Z                              	@588
	?DeleteSelected@EditWindow@@QAEX_N@Z                        	@589
	?Detach@CImageList@@QAEPAU_IMAGELIST@@XZ                    	@590
	?Detach@Window@@QAEPAUHWND__@@XZ                            	@591
	?DetachIdleProc@App@@QAEP6A_NJ@ZXZ                          	@592
	?DetachPreTranslateProc@App@@QAEP6A_NPAUtagMSG@@@ZXZ        	@593
	?DeviceMode@PrintingDevice@@QAEPBU_devicemodeA@@XZ          	@594
	?DeviceName@PrintingDevice@@QAEPBDXZ                        	@595
	?Disable@Control@@QAEXXZ                                    	@596
	?Disable@ControlWindow@@QAEXXZ                              	@597
	?Disable@Window@@QAEXXZ                                     	@598
	?DisableItem@Menu@@QAE_NI@Z                                 	@599
	?Dispatch@EventContext@@MAEJVEvent@@@Z                      	@600
	?DragEnter@CImageList@@SA_NPAVWindow@@VPoint@@@Z            	@601
	?DragLeave@CImageList@@SA_NPAVWindow@@@Z                    	@602
	?DragMove@CImageList@@SA_NVPoint@@@Z                        	@603
	?DragShowNolock@CImageList@@SA_N_N@Z                        	@604
	?Draw@BitmapObject@@MAEXXZ                                  	@605
	?Draw@CImageListObject@@MAEXXZ                              	@606
	?Draw@CPolyPolygonObject@@MAEXXZ                            	@607
	?Draw@CPolygonObject@@MAEXXZ                                	@608
	?Draw@DrawObject@@MAEXXZ                                    	@609
	?Draw@EllipseObject@@MAEXXZ                                 	@610
	?Draw@FmtTextObject@@UAEXXZ                                 	@611
	?Draw@LineObject@@MAEXXZ                                    	@612
	?Draw@RectangleObject@@MAEXXZ                               	@613
	?Draw@TextObject@@MAEXXZ                                    	@614
	?Draw@Window@@QAEXPAVDrawObject@@@Z                         	@615
	?DrawCallUp@Window@@UAE_NPAVDrawObject@@_N@Z                	@616
	?DrawEntireItem@Window@@MAE_NVDrawItemEvt@@@Z               	@617
	?DrawEx@DrawObject@@MAEXK@Z                                 	@618
	?DrawEx@Window@@QAEXPAVDrawObject@@K@Z                      	@619
	?DrawItemFocus@Window@@MAE_NVDrawItemEvt@@@Z                	@620
	?DrawItemSelect@Window@@MAE_NVDrawItemEvt@@@Z               	@621
	?DriverName@PrintingDevice@@QAEPBDXZ                        	@622
	?EditChange@Window@@MAEXVControlEvt@@@Z                     	@623
	?EditFocusChg@Window@@MAEXVEditFocusChgEvt@@@Z              	@624
	?EditLabel@CListViewCtrl@@QAEPAVSingleLineEdit@@H@Z         	@625
	?EditLabel@CTreeViewCtrl@@QAEPAVSingleLineEdit@@PAU_TREEITEM@@@Z	@626
	?EditScroll@Window@@MAEXVControlEvt@@@Z                     	@627
	?Enable@Control@@QAEXXZ                                     	@628
	?Enable@ControlWindow@@QAEXXZ                               	@629
	?Enable@Window@@QAEXXZ                                      	@630
	?EnableBorder@AppWindow@@QAEXW4BorderType@1@@Z              	@631
	?EnableButton@CToolBarCtrl@@QAE_NH_N@Z                      	@632
	?EnableHScroll@Window@@QAEPAVWndHorzScrollBar@@_N@Z         	@633
	?EnableHelp@Window@@QAEX_NPAVHelpDisplay@@@Z                	@634
	?EnableItem@Menu@@QAE_NI@Z                                  	@635
	?EnableMaxBox@AppWindow@@QAEX_N@Z                           	@636
	?EnableMinBox@AppWindow@@QAEX_N@Z                           	@637
	?EnableSysMenu@AppWindow@@QAEPAVSysMenu@@_N@Z               	@638
	?EnableVScroll@Window@@QAEPAVWndVertScrollBar@@_N@Z         	@639
	?End@Selection@@QAEAAJXZ                                    	@640
	?EndDialog@CPropertySheet@@QAEXH@Z                          	@641
	?EndDlg@DialogWindow@@IAEXH@Z                               	@642
	?EndDrag@CImageList@@SAXXZ                                  	@643
	?EnsureVisible@CListViewCtrl@@QAE_NH_N@Z                    	@644
	?EnsureVisible@CTreeViewCtrl@@QAE_NPAU_TREEITEM@@@Z         	@645
	?Expand@CTreeViewCtrl@@QAE_NPAU_TREEITEM@@I@Z               	@646
	?Expose@ControlWindow@@MAEXVExposeEvt@@@Z                   	@647
	?Expose@Window@@MAEXVExposeEvt@@@Z                          	@648
	?ExtractIconA@CImageList@@QAEPAUHICON__@@H@Z                	@649
	?FInit@Control@@QAE_NXZ                                     	@650
	?FInit@ControlWindow@@QAE_NXZ                               	@651
	?FillInToolInfo@CToolTipCtrl@@QAEXAAUtagTOOLINFOA@@PAVWindow@@I@Z	@652
	?Find@CVLinked_List@@QAEPAXPAX@Z                            	@653
	?FindItem@CListViewCtrl@@QAEHPAUtagLVFINDINFOA@@H@Z         	@654
	?FindItemDeep@CVTable@@QAEHPBD@Z                            	@655
	?FindItemShallow@CVTable@@QAEHPBD@Z                         	@656
	?FindString@BaseListBox@@QAEHPBD_N@Z                        	@657
	?FindString@MultiSelListBox@@QAEHPBD_NH@Z                   	@658
	?First@CVLinked_List@@QAEPAVCVLink@@XZ                      	@659
	?Flags@CStdFileDlg@@QAEJXZ                                  	@660
	?FocusChange@Window@@MAEXVFocusChangeEvt@@@Z                	@661
	?ForwardEvent@Control@@QAEJVEvent@@@Z                       	@662
	?ForwardEvent@Window@@QAEJVEvent@@@Z                        	@663
	?GaugeBoxWndProc@@YGJPAUHWND__@@IIJ@Z                       	@664
	?Get3DWidth@GaugeBox@@QAEFXZ                                	@665
	?GetAccel@CSpinButtonCtrl@@QAEIHPAU_UDACCEL@@@Z             	@666
	?GetAccel@Window@@QAEPAVAccel@@XZ                           	@667
	?GetBackground@Window@@QAEPAVBrush@@XZ                      	@668
	?GetBase@CSpinButtonCtrl@@QAEIXZ                            	@669
	?GetBezelFace@GaugeBox@@QAEFXZ                              	@670
	?GetBitmapFlags@CToolBarCtrl@@QAEIXZ                        	@671
	?GetBits@Bitmap@@QAEKKPAG@Z                                 	@672
	?GetBkColor@CImageList@@QAEKXZ                              	@673
	?GetBkColor@CListViewCtrl@@QAEKXZ                           	@674
	?GetBkColor@GaugeBox@@QAE?AVColor@@XZ                       	@675
	?GetBlinkTime@Cursor@@QAEIXZ                                	@676
	?GetBlock@ScrollBar@@QAEIXZ                                 	@677
	?GetBorders@CStatusBarCtrl@@QAE_NAAH00@Z                    	@678
	?GetBorders@CStatusBarCtrl@@QAE_NPAH@Z                      	@679
	?GetBrush@Window@@QAEPAVBrush@@XZ                           	@680
	?GetBuddy@CSpinButtonCtrl@@QAEPAVControl@@XZ                	@681
	?GetButton@CToolBarCtrl@@QAE_NHPAU_TBBUTTON@@@Z             	@682
	?GetButtonCount@CToolBarCtrl@@QAEHXZ                        	@683
	?GetCallbackMask@CListViewCtrl@@QAEIXZ                      	@684
	?GetCaption@Window@@QAEPADPADH@Z                            	@685
	?GetCaretIndex@MultiSelListBox@@QAEFXZ                      	@686
	?GetChildItem@CTreeViewCtrl@@QAEPAU_TREEITEM@@PAU2@@Z       	@687
	?GetColor@CStdColorDlg@@QAE?AVColor@@XZ                     	@688
	?GetColumn@CListViewCtrl@@QAE_NHPAUtagLVCOLUMNA@@@Z         	@689
	?GetColumnOrderArray@CListViewCtrl@@QAE_NHPAH@Z             	@690
	?GetColumnWidth@CListViewCtrl@@QAEHH@Z                      	@691
	?GetControl@ControlEvt@@QAEPAVControl@@XZ                   	@692
	?GetControl@ControlWindow@@IAEPAVControl@@XZ                	@693
	?GetControl@NotifyEvt@@QAEPAVControl@@XZ                    	@694
	?GetControlID@ControlEvt@@QAE?AVCvID@@XZ                    	@695
	?GetControlID@NotifyEvt@@QAE?AVCvID@@XZ                     	@696
	?GetCount@BaseListBox@@QAEHXZ                               	@697
	?GetCount@CTreeViewCtrl@@QAEIXZ                             	@698
	?GetCountPerPage@CListViewCtrl@@QAEHXZ                      	@699
	?GetCurrentFile@FileListBox@@QAE_NPADH@Z                    	@700
	?GetCurrentIndex@ListBox@@QAEHXZ                            	@701
	?GetCurrentString@ListBox@@QAE_NPADH@Z                      	@702
	?GetDragImage@CImageList@@SAPAV1@PAVPoint@@0@Z              	@703
	?GetDrawTarget@Window@@QAEPAUHDC__@@XZ                      	@704
	?GetDropHilightItem@CTreeViewCtrl@@QAEPAU_TREEITEM@@XZ      	@705
	?GetEditControl@CListViewCtrl@@QAEPAVSingleLineEdit@@XZ     	@706
	?GetEditControl@CTreeViewCtrl@@QAEPAVSingleLineEdit@@XZ     	@707
	?GetEditSelection@ComboBox@@QAE?AVSelection@@PADH@Z         	@708
	?GetEditSelection@ComboBox@@QAE?AVSelection@@_N@Z           	@709
	?GetErrorType@PrinterErrorEvt@@QAE?AW4ErrorType@1@XZ        	@710
	?GetExposedArea@CDCExposeEvt@@QAE?AVRectangle@@XZ           	@711
	?GetExposedArea@ExposeEvt@@QAE?AVRectangle@@XZ              	@712
	?GetExposedArea@PrinterExposeEvt@@QAE?AVRectangle@@XZ       	@713
	?GetExtendedStyle@CListViewCtrl@@QAEKXZ                     	@714
	?GetFColor@GaugeBox@@QAE?AVColor@@XZ                        	@715
	?GetFileName@CStdFileDlg@@QAEXPADH@Z                        	@716
	?GetFileNameLen@CStdFileDlg@@QAEHXZ                         	@717
	?GetFilterIndex@CStdFileDlg@@QAEHXZ                         	@718
	?GetFirstSelected@MultiSelListBox@@QAEHXZ                   	@719
	?GetFirstVisibleItem@CTreeViewCtrl@@QAEPAU_TREEITEM@@XZ     	@720
	?GetFont@Window@@QAEPAVFont@@XZ                             	@721
	?GetHelpInfo@HelpRequestEvt@@QAEPBUtagHELPINFO@@XZ          	@722
	?GetHotCursor@CListViewCtrl@@QAEPAUHICON__@@XZ              	@723
	?GetHotItem@CListViewCtrl@@QAEHXZ                           	@724
	?GetID@Control@@QAE?AVCvID@@XZ                              	@725
	?GetID@ControlWindow@@QAE?AVCvID@@XZ                        	@726
	?GetImage@PushButton@@QAEPAUHBITMAP__@@XZ                   	@727
	?GetImageCount@CImageList@@QAEHXZ                           	@728
	?GetImageInfo@CImageList@@QAE_NHPAU_IMAGEINFO@@@Z           	@729
	?GetImageList@CListViewCtrl@@QAEPAVCImageList@@H@Z          	@730
	?GetImageList@CTreeViewCtrl@@QAEPAVCImageList@@I@Z          	@731
	?GetIndent@CTreeViewCtrl@@QAEIXZ                            	@732
	?GetItem@CListViewCtrl@@QAE_NPAUtagLVITEMA@@@Z              	@733
	?GetItem@CTreeViewCtrl@@QAE_NPAUtagTVITEMA@@@Z              	@734
	?GetItemCount@CListViewCtrl@@QAEHXZ                         	@735
	?GetItemData@CListViewCtrl@@QAEKH@Z                         	@736
	?GetItemData@CTreeViewCtrl@@QAEKPAU_TREEITEM@@@Z            	@737
	?GetItemData@DeleteItemEvt@@QAEPAXXZ                        	@738
	?GetItemData@DrawItemEvt@@QAEPAXXZ                          	@739
	?GetItemData@MeasureItemEvt@@QAEPAXXZ                       	@740
	?GetItemID@DeleteItemEvt@@QAEHXZ                            	@741
	?GetItemID@DrawItemEvt@@QAEHXZ                              	@742
	?GetItemID@HelpRequestEvt@@QAEIXZ                           	@743
	?GetItemID@MeasureItemEvt@@QAEHXZ                           	@744
	?GetItemID@MenuCommandEvt@@QAEIXZ                           	@745
	?GetItemID@MenuSelectEvt@@QAEIXZ                            	@746
	?GetItemImage@CTreeViewCtrl@@QAE_NPAU_TREEITEM@@AAH1@Z      	@747
	?GetItemRect@CListViewCtrl@@QAE_NHPAUtagRECT@@I@Z           	@748
	?GetItemRect@CToolBarCtrl@@QAE_NHPAUtagRECT@@@Z             	@749
	?GetItemRect@CTreeViewCtrl@@QAE_NPAU_TREEITEM@@PAVRectangle@@_N@Z	@750
	?GetItemSize@CClipboard@@QAEJW4Format@1@@Z                  	@751
	?GetItemState@CListViewCtrl@@QAEIHI@Z                       	@752
	?GetItemState@CTreeViewCtrl@@QAEIPAU_TREEITEM@@I@Z          	@753
	?GetItemText@CListViewCtrl@@QAE?AV?$basic_string@DVchar_traits_char@@V?$allocator@D@@@@HH@Z	@754
	?GetItemText@CListViewCtrl@@QAEHHHPADH@Z                    	@755
	?GetItemText@CTreeViewCtrl@@QAE?AV?$basic_string@DVchar_traits_char@@V?$allocator@D@@@@PAU_TREEITEM@@@Z	@756
	?GetLine@EditWindow@@QAEIIPADI@Z                            	@757
	?GetLine@MultiLineEdit@@QAEIHPADI@Z                         	@758
	?GetLineLength@MultiLineEdit@@QAEIH@Z                       	@759
	?GetMenu@MenuCommandEvt@@QAEPAVMenu@@XZ                     	@760
	?GetMenu@MenuInitEvt@@QAEPAVMenu@@XZ                        	@761
	?GetMenu@MenuSelectEvt@@QAEPAVMenu@@XZ                      	@762
	?GetMenu@Window@@QAEPAVMenu@@XZ                             	@763
	?GetNewHeight@ReSizeEvt@@QAEJXZ                             	@764
	?GetNewSize@ReSizeEvt@@QAE?AVDimension@@XZ                  	@765
	?GetNewWidth@ReSizeEvt@@QAEJXZ                              	@766
	?GetNextItem@CListViewCtrl@@QAEHHH@Z                        	@767
	?GetNextItem@CTreeViewCtrl@@QAEPAU_TREEITEM@@PAU2@I@Z       	@768
	?GetNextSelected@MultiSelListBox@@QAEHXZ                    	@769
	?GetNextSiblingItem@CTreeViewCtrl@@QAEPAU_TREEITEM@@PAU2@@Z 	@770
	?GetNextVisibleItem@CTreeViewCtrl@@QAEPAU_TREEITEM@@PAU2@@Z 	@771
	?GetNoSelected@MultiSelListBox@@QAEHXZ                      	@772
	?GetNotifyInfo@NotifyEvt@@QAEPAUtagNMHDR@@XZ                	@773
	?GetNumLines@EditWindow@@QAEIXZ                             	@774
	?GetNumLines@MultiLineEdit@@QAEIXZ                          	@775
	?GetOldPos@ScrollEvt@@QAEHXZ                                	@776
	?GetOrientation@GaugeBox@@QAEFXZ                            	@777
	?GetOrigin@CListViewCtrl@@QAE_NPAUtagPOINT@@@Z              	@778
	?GetPage@CPropertySheet@@QBEPAVCPropertyPage@@I@Z           	@779
	?GetPageCount@CPropertySheet@@QAEHXZ                        	@780
	?GetPageNumber@PrinterExposeEvt@@QAEHXZ                     	@781
	?GetPageSize@ScrollBar@@QAEIXZ                              	@782
	?GetParent@Control@@QAEPAVWindow@@XZ                        	@783
	?GetParent@Window@@QAEPAV1@XZ                               	@784
	?GetParentItem@CTreeViewCtrl@@QAEPAU_TREEITEM@@PAU2@@Z      	@785
	?GetParts@CStatusBarCtrl@@QAEHHPAH@Z                        	@786
	?GetPen@Window@@QAEPAVPen@@XZ                               	@787
	?GetPointer@Window@@QAEPAVPointer@@XZ                       	@788
	?GetPos@CSpinButtonCtrl@@QAEHXZ                             	@789
	?GetPos@Cursor@@QAE?AVPoint@@XZ                             	@790
	?GetPos@Pointer@@QAE?AVPoint@@XZ                            	@791
	?GetPos@ScrollEvt@@QAEHXZ                                   	@792
	?GetPosition@Control@@QAE?AVPoint@@XZ                       	@793
	?GetPosition@DrawObject@@UAE?AVPoint@@XZ                    	@794
	?GetPosition@GaugeBox@@QAEFXZ                               	@795
	?GetPosition@Window@@QAE?AVPoint@@XZ                        	@796
	?GetPrevSiblingItem@CTreeViewCtrl@@QAEPAU_TREEITEM@@PAU2@@Z 	@797
	?GetPrevVisibleItem@CTreeViewCtrl@@QAEPAU_TREEITEM@@PAU2@@Z 	@798
	?GetPropertySheet@CPropertyPage@@IAEPAVCPropertySheet@@XZ   	@799
	?GetRange@CSpinButtonCtrl@@QAEKXZ                           	@800
	?GetRange@CSpinButtonCtrl@@QAEXAAH0@Z                       	@801
	?GetRange@GaugeBox@@QAEFXZ                                  	@802
	?GetRange@ScrollBar@@QAE?AVRange@@XZ                        	@803
	?GetRect@CStatusBarCtrl@@QAE_NHPAUtagRECT@@@Z               	@804
	?GetRootItem@CTreeViewCtrl@@QAEPAU_TREEITEM@@XZ             	@805
	?GetRow@MultiSelTabularListBox@@QAA_NHZZ                    	@806
	?GetRow@TabularListBox@@QAA_NHZZ                            	@807
	?GetRows@CToolBarCtrl@@QAEHXZ                               	@808
	?GetScrollBar@ScrollEvt@@QAEPAVScrollBar@@XZ                	@809
	?GetScrollType@ScrollEvt@@QAE?AW4ScrollType@@XZ             	@810
	?GetSelectedCount@CListViewCtrl@@QAEIXZ                     	@811
	?GetSelectedItem@CTreeViewCtrl@@QAEPAU_TREEITEM@@XZ         	@812
	?GetSelection@Edit@@QAE?AVSelection@@PADH@Z                 	@813
	?GetSelection@Edit@@QAE?AVSelection@@_N@Z                   	@814
	?GetSelection@EditWindow@@QAE?AVSelection@@XZ               	@815
	?GetSelection@MultiSelListBox@@QAE_NF@Z                     	@816
	?GetSize@Bitmap@@QAE?AVDimension@@XZ                        	@817
	?GetSize@Control@@QAE?AVDimension@@XZ                       	@818
	?GetSize@DrawObject@@UAE?AVDimension@@XZ                    	@819
	?GetSize@LineObject@@UAE?AVDimension@@XZ                    	@820
	?GetSize@ShapeObject@@UAE?AVDimension@@XZ                   	@821
	?GetSize@Window@@QAE?AVDimension@@XZ                        	@822
	?GetState@CToolBarCtrl@@QAEHH@Z                             	@823
	?GetState@RadioButton@@QAE_NXZ                              	@824
	?GetString@BaseListBox@@QAE_NPADHH@Z                        	@825
	?GetString@MenuCommandEvt@@QAEPADPADH@Z                     	@826
	?GetString@MenuSelectEvt@@QAEPADPADH@Z                      	@827
	?GetStringLength@BaseListBox@@QAEHH@Z                       	@828
	?GetStringWidth@CListViewCtrl@@QAEHPBD@Z                    	@829
	?GetSubItemRect@CListViewCtrl@@QAE_NHHHPAUtagRECT@@@Z       	@830
	?GetText@CStatusBarCtrl@@QAE?AV?$basic_string@DVchar_traits_char@@V?$allocator@D@@@@HPAH@Z	@831
	?GetText@CStatusBarCtrl@@QAEHPBDHPAH@Z                      	@832
	?GetText@CToolTipCtrl@@QAEXAAV?$basic_string@DVchar_traits_char@@V?$allocator@D@@@@PAVWindow@@I@Z	@833
	?GetText@EditWindow@@QAEXPADI@Z                             	@834
	?GetText@TextControl@@QAEXPADI@Z                            	@835
	?GetTextBkColor@CListViewCtrl@@QAEKXZ                       	@836
	?GetTextColor@CListViewCtrl@@QAEKXZ                         	@837
	?GetTextLen@EditWindow@@QAEIXZ                              	@838
	?GetTextLen@TextControl@@QAEIXZ                             	@839
	?GetTextLength@CStatusBarCtrl@@QAEHHPAH@Z                   	@840
	?GetThumbPos@ScrollBar@@QAEHXZ                              	@841
	?GetToolCount@CToolTipCtrl@@QAEHXZ                          	@842
	?GetToolInfo@CToolTipCtrl@@QAE_NPAUtagTOOLINFOA@@PAVWindow@@I@Z	@843
	?GetToolTipID@ToolTipEvt@@QAEIXZ                            	@844
	?GetToolTips@CToolBarCtrl@@QAEPAVCToolTipCtrl@@XZ           	@845
	?GetTopIndex@CListViewCtrl@@QAEHXZ                          	@846
	?GetTrackPos@ScrollBar@@QAEHXZ                              	@847
	?GetType@MessBox@@QAEHXZ                                    	@848
	?GetUnit@ScrollBar@@QAEIXZ                                  	@849
	?GetViewRect@CListViewCtrl@@QAE_NPAUtagRECT@@@Z             	@850
	?GetVisibleCount@CTreeViewCtrl@@QAEIXZ                      	@851
	?GetWindowArea@HelpRequestEvt@@QAE?AW4WindowArea@@XZ        	@852
	?Green@Color@@QAEAAEXZ                                      	@853
	?Handle@Accel@@QAEPAUHACCEL__@@G@Z                          	@854
	?Handle@App@@SAPAUHINSTANCE__@@G@Z                          	@855
	?Handle@Bitmap@@QAEPAUHBITMAP__@@G@Z                        	@856
	?Handle@Brush@@QAEPAUHBRUSH__@@G@Z                          	@857
	?Handle@CDCWindow@@QAEPAUHWND__@@G@Z                        	@858
	?Handle@CImageList@@QBEPAU_IMAGELIST@@G@Z                   	@859
	?Handle@CPropertyPage@@QAEPAUHWND__@@G@Z                    	@860
	?Handle@Control@@QAEPAUHWND__@@G@Z                          	@861
	?Handle@Cursor@@QAEPAUHWND__@@G@Z                           	@862
	?Handle@DialogWindow@@QAEPAUHWND__@@G@Z                     	@863
	?Handle@DrawItemEvt@@QAEPAXG@Z                              	@864
	?Handle@DrawObject@@IAEPAUHDC__@@G@Z                        	@865
	?Handle@EventContext@@IAEPAUHWND__@@G@Z                     	@866
	?Handle@Font@@QAEPAUHFONT__@@G@Z                            	@867
	?Handle@HelpDisplay@@QAEPAXG@Z                              	@868
	?Handle@Icon@@QAEPAUHICON__@@G@Z                            	@869
	?Handle@MeasureItemEvt@@QAEPAUHWND__@@G@Z                   	@870
	?Handle@Menu@@QAEPAUHMENU__@@G@Z                            	@871
	?Handle@MessBox@@QAEPAUHWND__@@G@Z                          	@872
	?Handle@Pen@@QAEPAUHPEN__@@G@Z                              	@873
	?Handle@Pointer@@QAEPAUHICON__@@G@Z                         	@874
	?Handle@Printer@@QAEPAUHDC__@@G@Z                           	@875
	?Handle@ResID@@QAEPAUHINSTANCE__@@XZ                        	@876
	?Handle@ShellWindow@@QAEPAUHWND__@@G@Z                      	@877
	?Handle@Window@@QAEPAUHWND__@@G@Z                           	@878
	?Height@Dimension@@QAEAAJXZ                                 	@879
	?HelpError@HelpDisplay@@QAE?AW4HdError@@XZ                  	@880
	?HelpRequest@Window@@MAEXVHelpRequestEvt@@@Z                	@881
	?Hide@Control@@QAEXXZ                                       	@882
	?Hide@ControlWindow@@QAEXXZ                                 	@883
	?Hide@Cursor@@QAEXXZ                                        	@884
	?Hide@Pointer@@QAEXXZ                                       	@885
	?Hide@Window@@QAEXXZ                                        	@886
	?HideButton@CToolBarCtrl@@QAE_NH_N@Z                        	@887
	?HitTest@CListViewCtrl@@QAEHPAUtagLVHITTESTINFO@@@Z         	@888
	?HitTest@CListViewCtrl@@QAEHVPoint@@PAI@Z                   	@889
	?HitTest@CToolTipCtrl@@QAE_NPAVWindow@@VPoint@@PAUtagTOOLINFOA@@@Z	@890
	?HitTest@CTreeViewCtrl@@QAEPAU_TREEITEM@@PAUtagTVHITTESTINFO@@@Z	@891
	?HitTest@CTreeViewCtrl@@QAEPAU_TREEITEM@@VPoint@@PAI@Z      	@892
	?HitTest@DrawObject@@UAE_NVPoint@@@Z                        	@893
	?HorizScroll@ControlWindow@@MAEXVScrollEvt@@@Z              	@894
	?HorizScroll@Window@@MAEXVScrollEvt@@@Z                     	@895
	?Idle@Printer@@MAEXXZ                                       	@896
	?Indeterminate@CToolBarCtrl@@QAE_NH_N@Z                     	@897
	?Init@Font@@QAEXXZ                                          	@898
	?InitFromData@PrintingDevice@@QAE_NPAUtagDVTARGETDEVICE@@@Z 	@899
	?InitFromDefaultPrinter@PrintingDevice@@QAE_NPAPAUtagDVTARGETDEVICE@@@Z	@900
	?Insert@CClipboard@@QAEXPBD@Z                               	@901
	?Insert@CClipboard@@QAEXQAVBitmap@@@Z                       	@902
	?Insert@CVLinked_List@@QAEXPAX0@Z                           	@903
	?Insert@CVTable@@QAEXIPBD@Z                                 	@904
	?InsertButton@CToolBarCtrl@@QAE_NHPAU_TBBUTTON@@@Z          	@905
	?InsertColumn@CListViewCtrl@@QAEHHPBDHHH@Z                  	@906
	?InsertColumn@CListViewCtrl@@QAEHHPBUtagLVCOLUMNA@@@Z       	@907
	?InsertItem@CListViewCtrl@@QAEHHPBD@Z                       	@908
	?InsertItem@CListViewCtrl@@QAEHHPBDH@Z                      	@909
	?InsertItem@CListViewCtrl@@QAEHIHPBDIIHJ@Z                  	@910
	?InsertItem@CListViewCtrl@@QAEHPBUtagLVITEMA@@@Z            	@911
	?InsertItem@CTreeViewCtrl@@QAEPAU_TREEITEM@@IPBDHHIIJPAU2@1@Z	@912
	?InsertItem@CTreeViewCtrl@@QAEPAU_TREEITEM@@PBDHHPAU2@1@Z   	@913
	?InsertItem@CTreeViewCtrl@@QAEPAU_TREEITEM@@PBDPAU2@1@Z     	@914
	?InsertItem@CTreeViewCtrl@@QAEPAU_TREEITEM@@PBUtagTVINSERTSTRUCTA@@@Z	@915
	?InsertItem@Menu@@QAE_NIPAVBitmap@@I@Z                      	@916
	?InsertItem@Menu@@QAE_NIPBDI@Z                              	@917
	?InsertItem@Menu@@QAE_NPAV1@PBDI@Z                          	@918
	?InsertSeparator@Menu@@QAE_NI@Z                             	@919
	?IsButtonChecked@CToolBarCtrl@@QAE_NH@Z                     	@920
	?IsButtonEnabled@CToolBarCtrl@@QAE_NH@Z                     	@921
	?IsButtonHidden@CToolBarCtrl@@QAE_NH@Z                      	@922
	?IsButtonIndeterminate@CToolBarCtrl@@QAE_NH@Z               	@923
	?IsButtonPressed@CToolBarCtrl@@QAE_NH@Z                     	@924
	?Item@CVLink@@QAEPAXXZ                                      	@925
	?ItemHasChildren@CTreeViewCtrl@@QAE_NPAU_TREEITEM@@@Z       	@926
	?ItemSize@DrawItemEvt@@QAE?AVRectangle@@XZ                  	@927
	?ItemType@OwnerDrawEvt@@QAE?AW4OwnerDrawControl@1@XZ        	@928
	?Key@CVLink@@QAEPAXXZ                                       	@929
	?KeyDown@Window@@MAEXVKeyEvt@@@Z                            	@930
	?KeyUp@Window@@MAEXVKeyEvt@@@Z                              	@931
	?Keycode@KeyEvt@@QAEFXZ                                     	@932
	?LParam@Event@@QAEAAJXZ                                     	@933
	?Left@Rectangle@@QAEAAJXZ                                   	@934
	?Len@ResString@@QAEHXZ                                      	@935
	?LineDown@EditWindow@@QAEXXZ                                	@936
	?LineDown@MultiLineEdit@@QAEXXZ                             	@937
	?LineTo@Window@@QAEXVPoint@@@Z                              	@938
	?LineUp@EditWindow@@QAEXXZ                                  	@939
	?LineUp@MultiLineEdit@@QAEXXZ                               	@940
	?List@FileListBox@@QAE_NPBDI@Z                              	@941
	?ListBoxClk@Window@@MAEXVControlEvt@@@Z                     	@942
	?ListBoxSel@Window@@MAEXVControlEvt@@@Z                     	@943
	?LockOrder@CVLinked_List@@QAEXE@Z                           	@944
	?LowerRight@Rectangle@@QAE?AVPoint@@XZ                      	@945
	?Max@Range@@QAEAAJXZ                                        	@946
	?MeasureItem@Window@@MAE_NVMeasureItemEvt@@@Z               	@947
	?MenuCommand@Window@@MAEXVMenuCommandEvt@@@Z                	@948
	?MenuInit@Window@@MAEXVMenuInitEvt@@@Z                      	@949
	?MenuSelect@Window@@MAEXVMenuSelectEvt@@@Z                  	@950
	?Min@Range@@QAEAAJXZ                                        	@951
	?MouseButtonDblClk@Window@@MAEXVMouseEvt@@@Z                	@952
	?MouseButtonDn@Window@@MAEXVMouseEvt@@@Z                    	@953
	?MouseButtonUp@Window@@MAEXVMouseEvt@@@Z                    	@954
	?MouseDrag@Window@@MAEXVMouseEvt@@@Z                        	@955
	?MouseMove@Window@@MAEXVMouseEvt@@@Z                        	@956
	?MouseTrap@Window@@QAEXH@Z                                  	@957
	?Move@Window@@MAEXVMoveEvt@@@Z                              	@958
	?MoveTo@Window@@QAE?AVPoint@@V2@@Z                          	@959
	?MoveToFront@CVLinked_List@@IAEXXZ                          	@960
	?Msg@Event@@QAEAAIXZ                                        	@961
	?NewOrigin@MoveEvt@@QAE?AVPoint@@XZ                         	@962
	?Next@CVLink@@QAEPAV1@XZ                                    	@963
	?Next@CVLinked_List@@QAEPAVCVLink@@XZ                       	@964
	?OffsetPos@CProgressCtrl@@QAEHH@Z                           	@965
	?OnBeginAdjust@Window@@MAEXVNotifyEvt@@@Z                   	@966
	?OnBeginDrag@Window@@MAEXVNotifyEvt@@@Z                     	@967
	?OnBeginLabelEdit@Window@@MAE_NVNotifyEvt@@@Z               	@968
	?OnBeginRDrag@Window@@MAEXVNotifyEvt@@@Z                    	@969
	?OnCancel@CPropertyPage@@MAEXVNotifyEvt@@@Z                 	@970
	?OnClick@Window@@MAEXVNotifyEvt@@@Z                         	@971
	?OnColumnClick@Window@@MAEXVNotifyEvt@@@Z                   	@972
	?OnCustHelp@Window@@MAEXVNotifyEvt@@@Z                      	@973
	?OnDblClick@Window@@MAEXVNotifyEvt@@@Z                      	@974
	?OnDeleteAllItems@Window@@MAEXVNotifyEvt@@@Z                	@975
	?OnDeleteItem@Window@@MAEXVNotifyEvt@@@Z                    	@976
	?OnDeltaPos@Window@@MAE_NVNotifyEvt@@@Z                     	@977
	?OnEndAdjust@Window@@MAEXVNotifyEvt@@@Z                     	@978
	?OnEndDrag@Window@@MAEXVNotifyEvt@@@Z                       	@979
	?OnEndLabelEdit@Window@@MAEXVNotifyEvt@@@Z                  	@980
	?OnGetButtonInfo@Window@@MAE_NVNotifyEvt@@@Z                	@981
	?OnGetDispInfo@Window@@MAEXVNotifyEvt@@@Z                   	@982
	?OnHelp@CPropertyPage@@MAEXVNotifyEvt@@@Z                   	@983
	?OnHidingTip@Window@@MAEXVToolTipEvt@@@Z                    	@984
	?OnInsertItem@Window@@MAEXVNotifyEvt@@@Z                    	@985
	?OnItemChanged@Window@@MAEXVNotifyEvt@@@Z                   	@986
	?OnItemChanging@Window@@MAE_NVNotifyEvt@@@Z                 	@987
	?OnItemExpanded@Window@@MAEXVNotifyEvt@@@Z                  	@988
	?OnItemExpanding@Window@@MAE_NVNotifyEvt@@@Z                	@989
	?OnKeyDown@Window@@MAEXVNotifyEvt@@@Z                       	@990
	?OnKillActive@CPropertyPage@@MAE_NVNotifyEvt@@@Z            	@991
	?OnNeedText@Window@@MAEXVToolTipEvt@@@Z                     	@992
	?OnOK@CPropertyPage@@MAE_NVNotifyEvt@@@Z                    	@993
	?OnQueryCancel@CPropertyPage@@MAE_NVNotifyEvt@@@Z           	@994
	?OnQueryDelete@Window@@MAE_NVNotifyEvt@@@Z                  	@995
	?OnQueryInsert@Window@@MAE_NVNotifyEvt@@@Z                  	@996
	?OnReset@Window@@MAEXVNotifyEvt@@@Z                         	@997
	?OnSelChanged@Window@@MAEXVNotifyEvt@@@Z                    	@998
	?OnSelChanging@Window@@MAE_NVNotifyEvt@@@Z                  	@999
	?OnSetActive@CPropertyPage@@MAE_NVNotifyEvt@@@Z             	@1000
	?OnSetDispInfo@Window@@MAEXVNotifyEvt@@@Z                   	@1001
	?OnShowingTip@Window@@MAEXVToolTipEvt@@@Z                   	@1002
	?OnToolBarChange@Window@@MAEXVNotifyEvt@@@Z                 	@1003
	?OnWizBack@CPropertyPage@@MAEHVNotifyEvt@@@Z                	@1004
	?OnWizFinish@CPropertyPage@@MAE_NVNotifyEvt@@@Z             	@1005
	?OnWizNext@CPropertyPage@@MAEHVNotifyEvt@@@Z                	@1006
	?Open@CAnimateCtrl@@QAE_NI@Z                                	@1007
	?Open@CAnimateCtrl@@QAE_NPBD@Z                              	@1008
	?PageDown@EditWindow@@QAEXXZ                                	@1009
	?PageDown@MultiLineEdit@@QAEXXZ                             	@1010
	?PageUp@EditWindow@@QAEXXZ                                  	@1011
	?PageUp@MultiLineEdit@@QAEXXZ                               	@1012
	?PaintRectangle@Window@@QAEXVRectangle@@W4PaintMode@@@Z     	@1013
	?PaletteChange@Window@@MAEXVPaletteChangeEvt@@@Z            	@1014
	?Play@CAnimateCtrl@@QAE_NIII@Z                              	@1015
	?PortName@PrintingDevice@@QAEPBDXZ                          	@1016
	?PostEvent@Control@@QAEXVEvent@@@Z                          	@1017
	?PostEvent@Window@@QAEXVEvent@@@Z                           	@1018
	?PreTranslateMsg@DialogWindow@@UAE_NPAUtagMSG@@@Z           	@1019
	?PreTranslateMsg@Window@@UAE_NPAUtagMSG@@@Z                 	@1020
	?PressButton@CPropertySheet@@QAEXK@Z                        	@1021
	?PressButton@CToolBarCtrl@@QAE_NH_N@Z                       	@1022
	?PressSheetButton@CPropertyPage@@QAEXK@Z                    	@1023
	?PrinterError@Printer@@MAE_NVPrinterErrorEvt@@@Z            	@1024
	?PrinterExpose@BandingPrinter@@MAE_NVPrinterExposeEvt@@@Z   	@1025
	?PrinterExpose@Printer@@MAE_NVPrinterExposeEvt@@@Z          	@1026
	?Process@DrawObject@@UAEXVPoint@@@Z                         	@1027
	?PtInRect@Rectangle@@QAE_NVPoint@@@Z                        	@1028
	?QueryClose@Window@@MAE_NVEvent@@@Z                         	@1029
	?QuerySiblings@CPropertyPage@@QAEJIJ@Z                      	@1030
	?Quit@App@@SAXXZ                                            	@1031
	?QuitOnLast@App@@QAE_NXZ                                    	@1032
	?RePaint@Window@@QAEXXZ                                     	@1033
	?RePaintRect@Window@@QAEXVRectangle@@@Z                     	@1034
	?ReSize@Window@@MAEXVReSizeEvt@@@Z                          	@1035
	?Red@Color@@QAEAAEXZ                                        	@1036
	?RedrawItems@CListViewCtrl@@QAE_NHH@Z                       	@1037
	?RelayEvent@CToolTipCtrl@@QAEXPAUtagMSG@@@Z                 	@1038
	?Remove@CImageList@@QAE_NH@Z                                	@1039
	?RemoveImageList@CListViewCtrl@@IAEXH@Z                     	@1040
	?RemoveImageList@CTreeViewCtrl@@IAEXH@Z                     	@1041
	?RemovePage@CPropertySheet@@QAE_NI@Z                        	@1042
	?RemovePage@CPropertySheet@@QAE_NPAU_PSP@@@Z                	@1043
	?RemovePage@CPropertySheet@@QAE_NPAVCPropertyPage@@@Z       	@1044
	?Render@CDCWindow@@QAE_NAAVRectangle@@@Z                    	@1045
	?Repeat@KeyEvt@@QAEFXZ                                      	@1046
	?Replace@CImageList@@QAEHHPAVIcon@@@Z                       	@1047
	?Replace@CImageList@@QAE_NHPAVBitmap@@0@Z                   	@1048
	?ReplaceSelected@Edit@@QAE_NPBD@Z                           	@1049
	?ReplaceSelected@EditWindow@@QAEXPBD@Z                      	@1050
	?RequestType@HelpRequestEvt@@QAE?AW4HelpType@@XZ            	@1051
	?Reserved@Color@@QAEAAEXZ                                   	@1052
	?RestoreState@CToolBarCtrl@@QAEXPAUHKEY__@@PBD1@Z           	@1053
	?Result@CStdFileDlg@@QAE_NXZ                                	@1054
	?Result@DialogWindow@@QAEHXZ                                	@1055
	?Retrieve@CClipboard@@QAE_NPADH@Z                           	@1056
	?Retrieve@CClipboard@@QAE_NPAVBitmap@@@Z                    	@1057
	?Right@Rectangle@@QAEAAJXZ                                  	@1058
	?Run@App@@SAJPBD@Z                                          	@1059
	?SaveState@CToolBarCtrl@@QAEXPAUHKEY__@@PBD1@Z              	@1060
	?Scroll@CListViewCtrl@@QAE_NVDimension@@@Z                  	@1061
	?Scroll@Window@@QAEXVDimension@@VRectangle@@_N@Z            	@1062
	?ScrollHoriz@EditWindow@@QAEXI@Z                            	@1063
	?ScrollHoriz@MultiLineEdit@@QAEXH@Z                         	@1064
	?ScrollVertical@EditWindow@@QAEXI@Z                         	@1065
	?ScrollVertical@MultiLineEdit@@QAEXH@Z                      	@1066
	?Seek@CAnimateCtrl@@QAE_NI@Z                                	@1067
	?Select@CTreeViewCtrl@@QAEPAU_TREEITEM@@PAU2@I@Z            	@1068
	?SelectDropTarget@CTreeViewCtrl@@QAEPAU_TREEITEM@@PAU2@@Z   	@1069
	?SelectItem@CTreeViewCtrl@@QAEPAU_TREEITEM@@PAU2@@Z         	@1070
	?SelectSetFirstVisible@CTreeViewCtrl@@QAEPAU_TREEITEM@@PAU2@@Z	@1071
	?Set3DWidth@GaugeBox@@QAEXF@Z                               	@1072
	?SetAccel@CSpinButtonCtrl@@QAE_NHPAU_UDACCEL@@@Z            	@1073
	?SetAutoUpdate@Menu@@QAEXI@Z                                	@1074
	?SetBase@CSpinButtonCtrl@@QAEHH@Z                           	@1075
	?SetBezelFace@GaugeBox@@QAEXF@Z                             	@1076
	?SetBitmapSize@CToolBarCtrl@@QAE_NVDimension@@@Z            	@1077
	?SetBits@Bitmap@@QAEKKPAG@Z                                 	@1078
	?SetBkColor@CImageList@@QAEKK@Z                             	@1079
	?SetBkColor@CListViewCtrl@@QAE_NK@Z                         	@1080
	?SetBkColor@GaugeBox@@QAEXVColor@@@Z                        	@1081
	?SetBlock@ScrollBar@@QAEXI@Z                                	@1082
	?SetBold@Font@@QAEXXZ                                       	@1083
	?SetBorders@CStatusBarCtrl@@QAE_NHHH@Z                      	@1084
	?SetBorders@CStatusBarCtrl@@QAE_NPAH@Z                      	@1085
	?SetBuddy@CSpinButtonCtrl@@QAEPAVControl@@PAV2@@Z           	@1086
	?SetButtonSize@CToolBarCtrl@@QAE_NVDimension@@@Z            	@1087
	?SetButtonStructSize@CToolBarCtrl@@QAEXH@Z                  	@1088
	?SetCallbackMask@CListViewCtrl@@QAE_NI@Z                    	@1089
	?SetCaption@CStdFileDlg@@QAEXPBD@Z                          	@1090
	?SetCaption@Window@@QAEXPBD@Z                               	@1091
	?SetCaretIndex@MultiSelListBox@@QAE_NF_N@Z                  	@1092
	?SetChecked@CheckBox@@QAEX_N@Z                              	@1093
	?SetCmdID@CToolBarCtrl@@QAE_NHI@Z                           	@1094
	?SetColWidth@MultiSelTabularListBox@@QAEXII@Z               	@1095
	?SetColWidth@TabularListBox@@QAEXII@Z                       	@1096
	?SetColumn@CListViewCtrl@@QAE_NHPBUtagLVCOLUMNA@@@Z         	@1097
	?SetColumnOrderArray@CListViewCtrl@@QAE_NHPAH@Z             	@1098
	?SetColumnWidth@CListViewCtrl@@QAE_NHH@Z                    	@1099
	?SetCurSel@CPropertySheet@@QAE_NI@Z                         	@1100
	?SetCurSel@CPropertySheet@@QAE_NPAU_PSP@@@Z                 	@1101
	?SetCurSel@CPropertySheet@@QAE_NPAVCPropertyPage@@@Z        	@1102
	?SetCustomData@CStdFileDlg@@QAEXK@Z                         	@1103
	?SetDelayTime@CToolTipCtrl@@QAEXI@Z                         	@1104
	?SetDeltaPos@GaugeBox@@QAEXF@Z                              	@1105
	?SetDragCursorImage@CImageList@@QAE_NHVPoint@@@Z            	@1106
	?SetDrawTarget@Window@@QAEPAUHDC__@@PAU2@@Z                 	@1107
	?SetEscapement@Font@@QAEFF@Z                                	@1108
	?SetExtendedStyle@CListViewCtrl@@QAEKK@Z                    	@1109
	?SetFColor@GaugeBox@@QAEXVColor@@@Z                         	@1110
	?SetFileName@CStdFileDlg@@QAEXPBD@Z                         	@1111
	?SetFilterIndex@CStdFileDlg@@QAEXH@Z                        	@1112
	?SetFixedPitch@Font@@QAEXXZ                                 	@1113
	?SetFlags@CStdFileDlg@@QAEXJ@Z                              	@1114
	?SetFocus@Control@@QAEXXZ                                   	@1115
	?SetFocus@ControlWindow@@QAEXXZ                             	@1116
	?SetFocus@Window@@QAEXXZ                                    	@1117
	?SetHookFcn@CStdFileDlg@@QAEXP6AIPAUHWND__@@IIJ@Z@Z         	@1118
	?SetHotCursor@CListViewCtrl@@QAEPAUHICON__@@PAU2@@Z         	@1119
	?SetHotItem@CListViewCtrl@@QAEHH@Z                          	@1120
	?SetIcon@AppWindow@@QAEXPAVIcon@@@Z                         	@1121
	?SetIcon@CPropertyPage@@QAEXPAVIcon@@@Z                     	@1122
	?SetIcon@CPropertyPage@@QAEXVResID@@@Z                      	@1123
	?SetIcon@CPropertySheet@@QAEXPAVIcon@@@Z                    	@1124
	?SetIcon@CPropertySheet@@QAEXVResID@@@Z                     	@1125
	?SetImage@PushButton@@QAEPAUHBITMAP__@@PAU2@@Z              	@1126
	?SetImageList@CListViewCtrl@@QAEPAVCImageList@@PAV2@H@Z     	@1127
	?SetImageList@CTreeViewCtrl@@QAEPAVCImageList@@PAV2@H@Z     	@1128
	?SetIndent@CTreeViewCtrl@@QAEXI@Z                           	@1129
	?SetIndex@CImageListObject@@QAEXH@Z                         	@1130
	?SetInitialDir@CStdFileDlg@@QAEXPBD@Z                       	@1131
	?SetItalic@Font@@QAEXXZ                                     	@1132
	?SetItem@CListViewCtrl@@QAE_NHHIPBDHIIJ@Z                   	@1133
	?SetItem@CListViewCtrl@@QAE_NPBUtagLVITEMA@@@Z              	@1134
	?SetItem@CTreeViewCtrl@@QAE_NPAU_TREEITEM@@IPBDHHIIJ@Z      	@1135
	?SetItem@CTreeViewCtrl@@QAE_NPBUtagTVITEMA@@@Z              	@1136
	?SetItemCount@CListViewCtrl@@QAEXH@Z                        	@1137
	?SetItemData@CListViewCtrl@@QAE_NHK@Z                       	@1138
	?SetItemData@CTreeViewCtrl@@QAE_NPAU_TREEITEM@@K@Z          	@1139
	?SetItemHeight@MeasureItemEvt@@QAEXJ@Z                      	@1140
	?SetItemImage@CTreeViewCtrl@@QAE_NPAU_TREEITEM@@HH@Z        	@1141
	?SetItemState@CListViewCtrl@@QAE_NHII@Z                     	@1142
	?SetItemState@CListViewCtrl@@QAE_NHPAUtagLVITEMA@@@Z        	@1143
	?SetItemState@CTreeViewCtrl@@QAE_NPAU_TREEITEM@@II@Z        	@1144
	?SetItemText@CListViewCtrl@@QAE_NHHPAD@Z                    	@1145
	?SetItemText@CTreeViewCtrl@@QAE_NPAU_TREEITEM@@PBD@Z        	@1146
	?SetItemWidth@MeasureItemEvt@@QAEXJ@Z                       	@1147
	?SetLight@Font@@QAEXXZ                                      	@1148
	?SetMinHeight@CStatusBarCtrl@@QAEXH@Z                       	@1149
	?SetModified@CPropertyPage@@QAEX_N@Z                        	@1150
	?SetModified@Edit@@QAEX_N@Z                                 	@1151
	?SetMultiStyle@MultiLineEdit@@QAEXW4MultiLineStyle@1@@Z     	@1152
	?SetNormal@Font@@QAEXXZ                                     	@1153
	?SetOrientation@Font@@QAEFF@Z                               	@1154
	?SetOrientation@GaugeBox@@QAEXF@Z                           	@1155
	?SetOverlayImage@CImageList@@QAE_NHH@Z                      	@1156
	?SetOwner@CToolBarCtrl@@QAEXPAVWindow@@@Z                   	@1157
	?SetPageSize@ScrollBar@@QAEHI_N@Z                           	@1158
	?SetParts@CStatusBarCtrl@@QAE_NHPAH@Z                       	@1159
	?SetPointer@AppWindow@@QAEXPAVPointer@@@Z                   	@1160
	?SetPos@CProgressCtrl@@QAEHH@Z                              	@1161
	?SetPos@CSpinButtonCtrl@@QAEHH@Z                            	@1162
	?SetPosition@GaugeBox@@QAEXF@Z                              	@1163
	?SetQuitOnLast@App@@QAEX_N@Z                                	@1164
	?SetRange@CProgressCtrl@@QAEXHH@Z                           	@1165
	?SetRange@CSpinButtonCtrl@@QAEXHH@Z                         	@1166
	?SetRange@GaugeBox@@QAEXF@Z                                 	@1167
	?SetRange@ScrollBar@@QAEXVRange@@@Z                         	@1168
	?SetRows@CToolBarCtrl@@QAEXH_NPAUtagRECT@@@Z                	@1169
	?SetSheetWizardButtons@CPropertyPage@@QAEXK@Z               	@1170
	?SetSimple@CStatusBarCtrl@@QAE_N_N@Z                        	@1171
	?SetSize@Bitmap@@QAEXVDimension@@@Z                         	@1172
	?SetState@CToolBarCtrl@@QAE_NHI@Z                           	@1173
	?SetState@RadioButton@@QAEX_N@Z                             	@1174
	?SetStdStyle@BaseListBox@@QAEXW4ListBoxStyle@1@@Z           	@1175
	?SetStdStyle@Edit@@QAEXW4EditStyle@1@@Z                     	@1176
	?SetStdStyle@FixedText@@QAEXW4FixedTextStyle@1@@Z           	@1177
	?SetStep@CProgressCtrl@@QAEHH@Z                             	@1178
	?SetStrikethru@Font@@QAEXXZ                                 	@1179
	?SetStrobe@Window@@QAE_NPAVTimer@@@Z                        	@1180
	?SetStyle@CImageListObject@@QAEXI@Z                         	@1181
	?SetStyle@Control@@QAEXK@Z                                  	@1182
	?SetStyle@Window@@QAEXKH@Z                                  	@1183
	?SetTabSize@FmtTextObject@@QAEXI@Z                          	@1184
	?SetTemplate@CStdFileDlg@@QAEXPAUHINSTANCE__@@PBD@Z         	@1185
	?SetTemplate@CStdFileDlg@@QAEXPAX@Z                         	@1186
	?SetText@CStatusBarCtrl@@QAE_NPBDHH@Z                       	@1187
	?SetText@EditWindow@@QAEXPBD@Z                              	@1188
	?SetText@TextControl@@QAEXPBD@Z                             	@1189
	?SetTextBkColor@CListViewCtrl@@QAE_NK@Z                     	@1190
	?SetTextColor@CListViewCtrl@@QAE_NK@Z                       	@1191
	?SetTextLimit@Edit@@QAEXI@Z                                 	@1192
	?SetTextLimit@EditWindow@@QAEXI@Z                           	@1193
	?SetThumbPos@ScrollBar@@QAEXH@Z                             	@1194
	?SetToolInfo@CToolTipCtrl@@QAEXPAUtagTOOLINFOA@@@Z          	@1195
	?SetToolRect@CToolTipCtrl@@QAEXPAVWindow@@IPBUtagRECT@@@Z   	@1196
	?SetToolTips@CToolBarCtrl@@QAEXPAVCToolTipCtrl@@@Z          	@1197
	?SetTop@BaseListBox@@QAEXI@Z                                	@1198
	?SetType@MessBox@@QAEXH@Z                                   	@1199
	?SetUnderline@Font@@QAEXXZ                                  	@1200
	?SetUnit@ScrollBar@@QAEXI@Z                                 	@1201
	?SetUp@PrintingDevice@@QAE_NPAPAUtagDVTARGETDEVICE@@@Z      	@1202
	?SetVariablePitch@Font@@QAEXXZ                              	@1203
	?SetWizardButtons@CPropertySheet@@QAEXK@Z                   	@1204
	?Show@CPropertyPage@@EAEXW4ShowState@@@Z                    	@1205
	?Show@CPropertySheet@@UAEXW4ShowState@@@Z                   	@1206
	?Show@CStdDialog@@QAE_NXZ                                   	@1207
	?Show@Control@@QAEXXZ                                       	@1208
	?Show@Cursor@@QAEXXZ                                        	@1209
	?Show@HelpDisplay@@QAE_NK@Z                                 	@1210
	?Show@HelpDisplay@@QAE_NPBD@Z                               	@1211
	?Show@MessBox@@QAE?AW4StdMessBoxReply@@XZ                   	@1212
	?Show@Pointer@@QAEXXZ                                       	@1213
	?Show@Window@@UAEXW4ShowState@@@Z                           	@1214
	?SortChildren@CTreeViewCtrl@@QAE_NPAU_TREEITEM@@@Z          	@1215
	?SortChildrenCB@CTreeViewCtrl@@QAE_NPAUtagTVSORTCB@@@Z      	@1216
	?SortItems@CListViewCtrl@@QAE_NP6GHJJJ@ZK@Z                 	@1217
	?Start@Printer@@QAEXVRange@@@Z                              	@1218
	?Start@Printer@@QAEXXZ                                      	@1219
	?Start@Selection@@QAEAAJXZ                                  	@1220
	?StartBanding@BandingPrinter@@QAEXVRange@@@Z                	@1221
	?StartBanding@BandingPrinter@@QAEXXZ                        	@1222
	?StepIt@CProgressCtrl@@QAEHXZ                               	@1223
	?Stop@CAnimateCtrl@@QAE_NXZ                                 	@1224
	?Strobe@Window@@MAEXVStrobeEvt@@@Z                          	@1225
	?SubItemHitTest@CListViewCtrl@@QAEHPAUtagLVHITTESTINFO@@@Z  	@1226
	?TaskFind@CVLinked_List@@QAEPAXPAX@Z                        	@1227
	?TextPrint@Window@@QAEXPBDVPoint@@@Z                        	@1228
	?TextPrintf@Window@@QAAXPBDZZ                               	@1229
	?TextPrintf@Window@@QAAXVPoint@@PBDZZ                       	@1230
	?TextSize@Window@@QAE?AVDimension@@PBD@Z                    	@1231
	?ToTop@Window@@QAEXXZ                                       	@1232
	?Top@Rectangle@@QAEAAJXZ                                    	@1233
	?Undo@Edit@@QAE_NXZ                                         	@1234
	?Undo@EditWindow@@QAE_NXZ                                   	@1235
	?Union@Rectangle@@QAE?AV1@AAV1@@Z                           	@1236
	?Update@CListViewCtrl@@QAE_NH@Z                             	@1237
	?Update@Window@@QAEXXZ                                      	@1238
	?UpdateCaption@Window@@QAEXPBD@Z                            	@1239
	?UpdateTipText@CToolTipCtrl@@QAEXPBDPAVWindow@@I@Z          	@1240
	?UpdateTipText@CToolTipCtrl@@QAEXVResID@@PAVWindow@@I@Z     	@1241
	?UpperLeft@Rectangle@@QAE?AVPoint@@XZ                       	@1242
	?Validate@FileListBox@@QAE?AW4FlbStatus@@PADH@Z             	@1243
	?VertScroll@ControlWindow@@MAEXVScrollEvt@@@Z               	@1244
	?VertScroll@Window@@MAEXVScrollEvt@@@Z                      	@1245
	?WParam@Event@@QAEAAIXZ                                     	@1246
	?Where@HelpRequestEvt@@QAE?AVPoint@@XZ                      	@1247
	?Where@MouseEvt@@QAE?AVPoint@@XZ                            	@1248
	?Width@Dimension@@QAEAAJXZ                                  	@1249
	?WindowInit@Window@@MAEXVEvent@@@Z                          	@1250
	?WindowRect@Window@@QAE?AVRectangle@@XZ                     	@1251
	?X@Point@@QAEAAJXZ                                          	@1252
	?Y@Point@@QAEAAJXZ                                          	@1253
	?_Find@CVLinked_List@@IAEPAXPAX0@Z                          	@1254
	?_Find@CVLinked_List@@IAEPAXPAX@Z                           	@1255
	?gotFocus@ComboFocusChgEvt@@QAE_NXZ                         	@1256
	?gotFocus@EditFocusChgEvt@@QAE_NXZ                          	@1257
	?gotFocus@FocusChangeEvt@@QAE_NXZ                           	@1258
	?hasFocus@DrawItemEvt@@QAE_NXZ                              	@1259
	?isBold@Font@@QAE_NXZ                                       	@1260
	?isChecked@CheckBox@@QAE_NXZ                                	@1261
	?isControlButton@MouseEvt@@QAE_NXZ                          	@1262
	?isDisabled@DrawItemEvt@@QAE_NXZ                            	@1263
	?isIconic@Window@@QAE_NXZ                                   	@1264
	?isItalic@Font@@QAE_NXZ                                     	@1265
	?isLeftButton@MouseEvt@@QAE_NXZ                             	@1266
	?isLight@Font@@QAE_NXZ                                      	@1267
	?isMiddleButton@MouseEvt@@QAE_NXZ                           	@1268
	?isModified@Edit@@QAE_NXZ                                   	@1269
	?isModified@EditWindow@@QAE_NXZ                             	@1270
	?isNormal@Font@@QAE_NXZ                                     	@1271
	?isPitchFixed@Font@@QAE_NXZ                                 	@1272
	?isPitchVariable@Font@@QAE_NXZ                              	@1273
	?isRightButton@MouseEvt@@QAE_NXZ                            	@1274
	?isSelected@DrawItemEvt@@QAE_NXZ                            	@1275
	?isShiftButton@MouseEvt@@QAE_NXZ                            	@1276
	?isStrikethru@Font@@QAE_NXZ                                 	@1277
	?isSystem@KeyEvt@@QAE_NXZ                                   	@1278
	?isUnderline@Font@@QAE_NXZ                                  	@1279
	?isValid@Printer@@QAE_NXZ                                   	@1280
	?isValid@PrintingDevice@@QAE_NXZ                            	@1281
	?isVisible@Window@@QAE_NXZ                                  	@1282
	?isWindowScroll@ScrollEvt@@QAE_NXZ                          	@1283
	?isZoomed@Window@@QAE_NXZ                                   	@1284
	?unCheckItem@Menu@@QAE_NI@Z                                 	@1285
	_AppDelete                                                  	@1296
	_AppImpFind                                                 	@1297
	_AppInsert                                                  	@1298
	_ControlDispatcher@16                                       	@1286
	_CvDesktopDispatcher@16                                     	@1287
	_CvMdiChildDispatcher@16                                    	@1288
	_CvMdiFrameDispatcher@16                                    	@1289
	_DialogDispatcher@16                                        	@1290
	_EventDispatcher@16                                         	@1291
	_GaugeBoxInit@4                                             	@1292
	_MDIChildDispatcher@16                                      	@1293
	_MdiDefChildDispatcher@16                                   	@1294
	_PropSheetDispatcher@16                                     	@1295
