DESCRIPTION     'Yacc++/Language Objects Library'

EXPORTS
	??0yy_ast_dump_obj@@QAE@ABV0@@Z                             	@1
	??0yy_ast_dump_obj@@QAE@XZ                                  	@2
	??0yy_ast_nodump_obj@@QAE@ABV0@@Z                           	@3
	??0yy_ast_nodump_obj@@QAE@XZ                                	@4
	??0yy_buf_obj@@QAE@ABV0@@Z                                  	@5
	??0yy_buf_obj@@QAE@XZ                                       	@6
	??0yy_err_gen_obj@@QAE@ABV0@@Z                              	@7
	??0yy_err_gen_obj@@QAE@PAVyy_errmsg_dflt_obj@@HPAVyy_synamsg_dflt_obj@@H@Z	@8
	??0yy_err_obj@@QAE@ABV0@@Z                                  	@9
	??0yy_err_obj@@QAE@XZ                                       	@10
	??0yy_err_proc_obj@@QAE@ABV0@@Z                             	@11
	??0yy_err_proc_obj@@QAE@P6GHPBD@ZPAVyy_errmsg_dflt_obj@@HPAVyy_synamsg_dflt_obj@@H@Z	@12
	??0yy_errmsg_dflt_obj@@QAE@ABV0@@Z                          	@13
	??0yy_errmsg_dflt_obj@@QAE@HHPBD@Z                          	@14
	??0yy_errmsg_dflt_obj@@QAE@XZ                               	@15
	??0yy_errmsg_obj@@QAE@ABV0@@Z                               	@16
	??0yy_errmsg_obj@@QAE@XZ                                    	@17
	??0yy_inp_file_obj@@QAE@ABV0@@Z                             	@18
	??0yy_inp_file_obj@@QAE@PAVyy_err_obj@@@Z                   	@19
	??0yy_inp_file_obj@@QAE@PAVyy_inp_obj@@@Z                   	@20
	??0yy_inp_file_obj@@QAE@XZ                                  	@21
	??0yy_inp_getc_obj@@QAE@ABV0@@Z                             	@22
	??0yy_inp_getc_obj@@QAE@PAVyy_err_obj@@@Z                   	@23
	??0yy_inp_getc_obj@@QAE@PAVyy_inp_obj@@@Z                   	@24
	??0yy_inp_getc_obj@@QAE@XZ                                  	@25
	??0yy_inp_obj@@IAE@PAV0@@Z                                  	@26
	??0yy_inp_obj@@IAE@PAVyy_err_obj@@@Z                        	@27
	??0yy_inp_obj@@IAE@XZ                                       	@28
	??0yy_inp_obj@@QAE@ABV0@@Z                                  	@29
	??0yy_inp_stream_obj@@QAE@ABV0@@Z                           	@30
	??0yy_inp_stream_obj@@QAE@PAVyy_err_obj@@@Z                 	@31
	??0yy_inp_stream_obj@@QAE@PAVyy_inp_obj@@@Z                 	@32
	??0yy_inp_stream_obj@@QAE@XZ                                	@33
	??0yy_inp_string_obj@@QAE@ABV0@@Z                           	@34
	??0yy_inp_string_obj@@QAE@PAVyy_err_obj@@@Z                 	@35
	??0yy_inp_string_obj@@QAE@PAVyy_inp_obj@@@Z                 	@36
	??0yy_inp_string_obj@@QAE@XZ                                	@37
	??0yy_lex_obj@@QAE@ABV0@@Z                                  	@38
	??0yy_lex_obj@@QAE@HHPAVyy_inp_obj@@PAVyy_symtab_obj@@PAHHH@Z	@39
	??0yy_lex_obj_fast@@QAE@ABV0@@Z                             	@40
	??0yy_lex_obj_fast@@QAE@HHPAHPAVyy_inp_obj@@PAVyy_symtab_obj@@0HH@Z	@41
	??0yy_lex_obj_readable@@QAE@ABV0@@Z                         	@42
	??0yy_lex_obj_readable@@QAE@HHPAHPAPAVyy_lex_readable_dt@@PAVyy_inp_obj@@PAVyy_symtab_obj@@0HH@Z	@43
	??0yy_lex_obj_small@@QAE@ABV0@@Z                            	@44
	??0yy_lex_obj_small@@QAE@HHPAHPAPAVyy_lex_small_dt@@PAVyy_inp_obj@@PAVyy_symtab_obj@@0HH@Z	@45
	??0yy_loc_dflt_obj@@QAE@ABV0@@Z                             	@46
	??0yy_loc_dflt_obj@@QAE@PBD@Z                               	@47
	??0yy_loc_dflt_obj@@QAE@XZ                                  	@48
	??0yy_loc_obj@@QAE@ABV0@@Z                                  	@49
	??0yy_loc_obj@@QAE@PAV0@@Z                                  	@50
	??0yy_loc_obj@@QAE@XZ                                       	@51
	??0yy_loc_stack_obj@@QAE@ABV0@@Z                            	@52
	??0yy_loc_stack_obj@@QAE@PAVyy_loc_obj@@@Z                  	@53
	??0yy_loc_stack_obj@@QAE@XZ                                 	@54
	??0yy_psr_obj@@QAE@ABV0@@Z                                  	@55
	??0yy_psr_obj@@QAE@HHHHPAVyy_lex_obj@@HPAHPAPADPAUyy_psr_start_state_tbl_@@1HHHH@Z	@56
	??0yy_psr_obj_fast@@QAE@ABV0@@Z                             	@57
	??0yy_psr_obj_fast@@QAE@HHHHPAHPAVyy_lex_obj@@HPAUyy_syna_ix_fast@@0PAPADPAUyy_psr_start_state_tbl_@@0HHHH@Z	@58
	??0yy_psr_obj_readable@@QAE@ABV0@@Z                         	@59
	??0yy_psr_obj_readable@@QAE@HHHHPAHPAPAUyy_psr_readable_dt@@PAVyy_lex_obj@@H00PAPADPAUyy_psr_start_state_tbl_@@0HHHH@Z	@60
	??0yy_psr_obj_small@@QAE@ABV0@@Z                            	@61
	??0yy_psr_obj_small@@QAE@HHHHPAHPAPAUyy_psr_small_dt@@PAVyy_lex_obj@@H00PAPADPAUyy_psr_start_state_tbl_@@0HHHH@Z	@62
	??0yy_ref_obj@@QAE@ABV0@@Z                                  	@63
	??0yy_ref_obj@@QAE@H@Z                                      	@64
	??0yy_ref_obj@@QAE@HH@Z                                     	@65
	??0yy_ref_obj@@QAE@HPAVyy_ast_obj@@@Z                       	@66
	??0yy_ref_obj@@QAE@HPAVyy_sym_obj@@@Z                       	@67
	??0yy_ref_obj@@QAE@HPAX@Z                                   	@68
	??0yy_ref_obj@@QAE@HTyy_union@@@Z                           	@69
	??0yy_ref_obj@@QAE@PAVyy_ast_obj@@@Z                        	@70
	??0yy_ref_obj@@QAE@PAVyy_sym_obj@@@Z                        	@71
	??0yy_ref_obj@@QAE@PAX@Z                                    	@72
	??0yy_ref_obj@@QAE@Tyy_union@@@Z                            	@73
	??0yy_ref_obj@@QAE@XZ                                       	@74
	??0yy_sym_dflt_obj@@QAE@ABV0@@Z                             	@75
	??0yy_sym_dflt_obj@@QAE@PAV0@PADHHHH@Z                      	@76
	??0yy_sym_dflt_obj@@QAE@XZ                                  	@77
	??0yy_sym_obj@@QAE@ABV0@@Z                                  	@78
	??0yy_sym_obj@@QAE@XZ                                       	@79
	??0yy_symtab_dflt_obj@@QAE@ABV0@@Z                          	@80
	??0yy_symtab_dflt_obj@@QAE@XZ                               	@81
	??0yy_symtab_obj@@QAE@ABV0@@Z                               	@82
	??0yy_symtab_obj@@QAE@XZ                                    	@83
	??0yy_synamsg_dflt_obj@@QAE@ABV0@@Z                         	@84
	??0yy_synamsg_dflt_obj@@QAE@HPBD@Z                          	@85
	??0yy_synamsg_dflt_obj@@QAE@XZ                              	@86
	??0yy_synamsg_obj@@QAE@ABV0@@Z                              	@87
	??0yy_synamsg_obj@@QAE@XZ                                   	@88
	??1yy_ast_dump_obj@@UAE@XZ                                  	@89
	??1yy_ast_nodump_obj@@UAE@XZ                                	@90
	??1yy_buf_obj@@UAE@XZ                                       	@91
	??1yy_err_gen_obj@@UAE@XZ                                   	@92
	??1yy_err_obj@@UAE@XZ                                       	@93
	??1yy_err_proc_obj@@UAE@XZ                                  	@94
	??1yy_errmsg_dflt_obj@@UAE@XZ                               	@95
	??1yy_errmsg_obj@@UAE@XZ                                    	@96
	??1yy_inp_file_obj@@UAE@XZ                                  	@97
	??1yy_inp_getc_obj@@UAE@XZ                                  	@98
	??1yy_inp_obj@@UAE@XZ                                       	@99
	??1yy_inp_stream_obj@@UAE@XZ                                	@100
	??1yy_inp_string_obj@@UAE@XZ                                	@101
	??1yy_lex_obj@@UAE@XZ                                       	@102
	??1yy_lex_obj_fast@@UAE@XZ                                  	@103
	??1yy_lex_obj_readable@@UAE@XZ                              	@104
	??1yy_lex_obj_small@@UAE@XZ                                 	@105
	??1yy_loc_dflt_obj@@UAE@XZ                                  	@106
	??1yy_loc_obj@@UAE@XZ                                       	@107
	??1yy_loc_stack_obj@@UAE@XZ                                 	@108
	??1yy_psr_obj@@UAE@XZ                                       	@109
	??1yy_psr_obj_fast@@UAE@XZ                                  	@110
	??1yy_psr_obj_readable@@UAE@XZ                              	@111
	??1yy_psr_obj_small@@UAE@XZ                                 	@112
	??1yy_ref_obj@@QAE@XZ                                       	@113
	??1yy_sym_dflt_obj@@UAE@XZ                                  	@114
	??1yy_sym_obj@@UAE@XZ                                       	@115
	??1yy_symtab_dflt_obj@@UAE@XZ                               	@116
	??1yy_symtab_obj@@UAE@XZ                                    	@117
	??1yy_synamsg_dflt_obj@@UAE@XZ                              	@118
	??1yy_synamsg_obj@@UAE@XZ                                   	@119
	??4yy_ast_dump_obj@@QAEAAV0@ABV0@@Z                         	@120
	??4yy_ast_nodump_obj@@QAEAAV0@ABV0@@Z                       	@121
	??4yy_buf_obj@@QAEAAV0@ABV0@@Z                              	@122
	??4yy_err_gen_obj@@QAEAAV0@ABV0@@Z                          	@123
	??4yy_err_obj@@QAEAAV0@ABV0@@Z                              	@124
	??4yy_err_proc_obj@@QAEAAV0@ABV0@@Z                         	@125
	??4yy_errmsg_dflt_obj@@QAEAAV0@ABV0@@Z                      	@126
	??4yy_errmsg_obj@@QAEAAV0@ABV0@@Z                           	@127
	??4yy_inp_file_obj@@QAEAAV0@ABV0@@Z                         	@128
	??4yy_inp_getc_obj@@QAEAAV0@ABV0@@Z                         	@129
	??4yy_inp_obj@@QAEAAV0@ABV0@@Z                              	@130
	??4yy_inp_stream_obj@@QAEAAV0@ABV0@@Z                       	@131
	??4yy_inp_string_obj@@QAEAAV0@ABV0@@Z                       	@132
	??4yy_lex_obj@@QAEAAV0@ABV0@@Z                              	@133
	??4yy_lex_obj_fast@@QAEAAV0@ABV0@@Z                         	@134
	??4yy_lex_obj_readable@@QAEAAV0@ABV0@@Z                     	@135
	??4yy_lex_obj_small@@QAEAAV0@ABV0@@Z                        	@136
	??4yy_lex_readable_dt@@QAEAAV0@ABV0@@Z                      	@137
	??4yy_lex_small_dt@@QAEAAV0@ABV0@@Z                         	@138
	??4yy_loc_dflt_obj@@QAEAAV0@ABV0@@Z                         	@139
	??4yy_loc_obj@@QAEAAV0@ABV0@@Z                              	@140
	??4yy_loc_stack_obj@@QAEAAV0@ABV0@@Z                        	@141
	??4yy_psr_obj@@QAEAAV0@ABV0@@Z                              	@142
	??4yy_psr_obj_fast@@QAEAAV0@ABV0@@Z                         	@143
	??4yy_psr_obj_readable@@QAEAAV0@ABV0@@Z                     	@144
	??4yy_psr_obj_small@@QAEAAV0@ABV0@@Z                        	@145
	??4yy_ref_obj@@QAEAAV0@ABV0@@Z                              	@146
	??4yy_sym_dflt_obj@@QAEAAV0@ABV0@@Z                         	@147
	??4yy_sym_obj@@QAEAAV0@ABV0@@Z                              	@148
	??4yy_symtab_dflt_obj@@QAEAAV0@ABV0@@Z                      	@149
	??4yy_symtab_obj@@QAEAAV0@ABV0@@Z                           	@150
	??4yy_synamsg_dflt_obj@@QAEAAV0@ABV0@@Z                     	@151
	??4yy_synamsg_obj@@QAEAAV0@ABV0@@Z                          	@152
	??Byy_ref_obj@@QAE?ATyy_union@@XZ                           	@153
	??Byy_ref_obj@@QAEHXZ                                       	@154
	??Byy_ref_obj@@QAEPAVyy_ast_obj@@XZ                         	@155
	??Byy_ref_obj@@QAEPAVyy_sym_obj@@XZ                         	@156
	??Byy_ref_obj@@QAEPAXXZ                                     	@157
	??_7yy_ast_dump_obj@@6B@                                    	@158
	??_7yy_ast_nodump_obj@@6B@                                  	@159
	??_7yy_buf_obj@@6B@                                         	@160
	??_7yy_err_gen_obj@@6B@                                     	@161
	??_7yy_err_obj@@6B@                                         	@162
	??_7yy_err_proc_obj@@6B@                                    	@163
	??_7yy_errmsg_dflt_obj@@6B@                                 	@164
	??_7yy_errmsg_obj@@6B@                                      	@165
	??_7yy_inp_file_obj@@6B@                                    	@166
	??_7yy_inp_getc_obj@@6B@                                    	@167
	??_7yy_inp_obj@@6B@                                         	@168
	??_7yy_inp_stream_obj@@6B@                                  	@169
	??_7yy_inp_string_obj@@6B@                                  	@170
	??_7yy_lex_obj@@6B@                                         	@171
	??_7yy_lex_obj_fast@@6B@                                    	@172
	??_7yy_lex_obj_readable@@6B@                                	@173
	??_7yy_lex_obj_small@@6B@                                   	@174
	??_7yy_loc_dflt_obj@@6B@                                    	@175
	??_7yy_loc_obj@@6B@                                         	@176
	??_7yy_loc_stack_obj@@6B@                                   	@177
	??_7yy_psr_obj@@6B@                                         	@178
	??_7yy_psr_obj_fast@@6B@                                    	@179
	??_7yy_psr_obj_readable@@6B@                                	@180
	??_7yy_psr_obj_small@@6B@                                   	@181
	??_7yy_sym_dflt_obj@@6B@                                    	@182
	??_7yy_sym_obj@@6B@                                         	@183
	??_7yy_symtab_dflt_obj@@6B@                                 	@184
	??_7yy_symtab_obj@@6B@                                      	@185
	??_7yy_synamsg_dflt_obj@@6B@                                	@186
	??_7yy_synamsg_obj@@6B@                                     	@187
	??_C@_0BI@JHPJ@unable?5to?5extend?5buffer?$AA@              	@188
;	??_C@_0BJ@ODDE@E?3?2YXX20?2INC?4C8?2yy_buf?4h?$AA@          	@189
	??_C@_0BL@HIMM@space?5unavailable?5from?5new?$AA@           	@190
	??_C@_0DD@DFH@yy_tkn_start?5?$DM?$DN?5yy_tkn_end?5?$CG?$CG?5yy@	@191
	??_C@_0DH@CNNM@yy_read?5?$DM?$DN?5yy_end?5?$HM?$HM?5yy_read?5?$DN?$DN?5@	@192
	??_C@_0EE@MMCH@yy_tkn_start?5?$DM?$DN?5yy_read?5?$CG?$CG?5yy_re@	@193
	??_C@_0EJ@FL@yy_start?5?$DM?$DN?5yy_end?5?$CG?$CG?5yy_end?5?$DM?$DN?5@	@194
	??_C@_0EM@FHEB@yy_start?5?$DM?$DN?5yy_read?5?$CG?$CG?5yy_read?5?$DM@	@195
	??_C@_0EN@KBOL@yy_tkn_start?5?$DM?$DN?5yy_tkn_end?5?$CG?$CG?5yy@	@196
	??_C@_0FP@JEDG@yy_tkn_start?5?$DM?$DN?5yy_tkn_end?5?$CG?$CG?5yy@	@197
	??_C@_0M@NJMA@0?5?$DM?5yy_size?$AA@                         	@198
	??_Fyy_err_gen_obj@@QAEXXZ                                  	@199
	?yy_assert_fail@@YAHPAD0H@Z                                 	@200
	?yy_buf_dmp@yy_buf_obj@@QAEXPAVyy_err_obj@@PBD@Z            	@201
	?yy_buf_end@yy_buf_obj@@QAEPADPAD@Z                         	@202
	?yy_buf_end@yy_buf_obj@@QAEPADXZ                            	@203
	?yy_buf_eof_read@yy_buf_obj@@QAEHH@Z                        	@204
	?yy_buf_eof_read@yy_buf_obj@@QAEHXZ                         	@205
	?yy_buf_extend@yy_buf_obj@@QAEXI@Z                          	@206
	?yy_buf_extend@yy_buf_obj@@QAEXXZ                           	@207
	?yy_buf_init@yy_buf_obj@@QAEXXZ                             	@208
	?yy_buf_ins@yy_buf_obj@@QAEXPADI@Z                          	@209
	?yy_buf_lhead_char@yy_buf_obj@@QAEHH@Z                      	@210
	?yy_buf_lhead_char@yy_buf_obj@@QAEHXZ                       	@211
	?yy_buf_lhead_to_read@yy_buf_obj@@QAEHXZ                    	@212
	?yy_buf_lhead_unread@yy_buf_obj@@QAEHXZ                     	@213
	?yy_buf_lineno@yy_buf_obj@@QAEAAHXZ                         	@214
	?yy_buf_mark_lhead_read@yy_buf_obj@@QAEXXZ                  	@215
	?yy_buf_mark_nterm_lhead@yy_buf_obj@@QAEXXZ                 	@216
	?yy_buf_mark_nterm_read@yy_buf_obj@@QAEXXZ                  	@217
	?yy_buf_read@yy_buf_obj@@QAEPADPAD@Z                        	@218
	?yy_buf_read@yy_buf_obj@@QAEPADXZ                           	@219
	?yy_buf_read_eof_lhead@yy_buf_obj@@QAEXXZ                   	@220
	?yy_buf_read_lhead@yy_buf_obj@@QAEXXZ                       	@221
	?yy_buf_reset@yy_buf_obj@@QAEXXZ                            	@222
	?yy_buf_set_eof@yy_buf_obj@@QAEXXZ                          	@223
	?yy_buf_size@yy_buf_obj@@QAEII@Z                            	@224
	?yy_buf_size@yy_buf_obj@@QAEIXZ                             	@225
	?yy_buf_start@yy_buf_obj@@QAEPADPAD@Z                       	@226
	?yy_buf_start@yy_buf_obj@@QAEPADXZ                          	@227
	?yy_buf_start_tkn@yy_buf_obj@@QAEXXZ                        	@228
	?yy_buf_tkn_end@yy_buf_obj@@QAEPADPAD@Z                     	@229
	?yy_buf_tkn_end@yy_buf_obj@@QAEPADXZ                        	@230
	?yy_buf_tkn_start@yy_buf_obj@@QAEPADPAD@Z                   	@231
	?yy_buf_tkn_start@yy_buf_obj@@QAEPADXZ                      	@232
	?yy_buf_unread_len@yy_buf_obj@@QAEJXZ                       	@233
	?yy_buf_wrap@yy_buf_obj@@QAEXXZ                             	@234
	?yy_err_display_syna_assists@yy_err_gen_obj@@QAEHH@Z        	@235
	?yy_err_display_syna_assists@yy_err_gen_obj@@QBEHXZ         	@236
	?yy_err_exit@@YAXXZ                                         	@237
	?yy_err_exit@yy_err_gen_obj@@UAEXXZ                         	@238
	?yy_err_failsafe@yy_err_gen_obj@@1PAV1@A                    	@239
	?yy_err_failsafe_obj@@YAPAVyy_err_gen_obj@@XZ               	@240
	?yy_err_highest_severity_found@yy_err_gen_obj@@QAEHH@Z      	@241
	?yy_err_highest_severity_found@yy_err_gen_obj@@QBEHXZ       	@242
	?yy_err_lookup_msg@yy_err_gen_obj@@UAEPAVyy_errmsg_obj@@H@Z 	@243
	?yy_err_lookup_syna_msg@yy_err_gen_obj@@UAEPAVyy_synamsg_obj@@H@Z	@244
	?yy_err_max_errors_allowed@yy_err_gen_obj@@QAEHH@Z          	@245
	?yy_err_max_errors_allowed@yy_err_gen_obj@@QBEHXZ           	@246
	?yy_err_max_warnings_allowed@yy_err_gen_obj@@QAEHH@Z        	@247
	?yy_err_max_warnings_allowed@yy_err_gen_obj@@QBEHXZ         	@248
	?yy_err_min_severity_to_display@yy_err_gen_obj@@QAEHH@Z     	@249
	?yy_err_min_severity_to_display@yy_err_gen_obj@@QBEHXZ      	@250
	?yy_err_min_severity_to_fail@yy_err_gen_obj@@QAEHH@Z        	@251
	?yy_err_min_severity_to_fail@yy_err_gen_obj@@QBEHXZ         	@252
	?yy_err_output_procedure@yy_err_proc_obj@@UAEP6GHPBD@ZP6GH0@Z@Z	@253
	?yy_err_output_procedure@yy_err_proc_obj@@UAEP6GHPBD@ZXZ    	@254
	?yy_err_pop_location@yy_err_gen_obj@@UAEXXZ                 	@255
	?yy_err_printf@@YAHPBDZZ                                    	@256
	?yy_err_printf@yy_err_obj@@QAAHPBDZZ                        	@257
	?yy_err_push_location@yy_err_gen_obj@@UAEXPAVyy_loc_obj@@@Z 	@258
	?yy_err_puts@yy_err_gen_obj@@UAEHPBD@Z                      	@259
	?yy_err_puts@yy_err_proc_obj@@UAEHPBD@Z                     	@260
	?yy_err_report@@YAHHZZ                                      	@261
	?yy_err_report@yy_err_obj@@QAAHHZZ                          	@262
	?yy_err_report@yy_inp_obj@@QAAHHZZ                          	@263
	?yy_err_report@yy_lex_obj@@QAAHHZZ                          	@264
	?yy_err_report@yy_psr_obj@@QAAHHZZ                          	@265
	?yy_err_reset@yy_err_gen_obj@@QAEXXZ                        	@266
	?yy_err_syna_display_prefix@yy_err_gen_obj@@QAEPBDPBD@Z     	@267
	?yy_err_syna_display_prefix@yy_err_gen_obj@@QBEPBDXZ        	@268
	?yy_err_syntax_assist@yy_err_gen_obj@@UAEHH@Z               	@269
	?yy_err_total_errors_found@yy_err_gen_obj@@QAEHH@Z          	@270
	?yy_err_total_errors_found@yy_err_gen_obj@@QBEHXZ           	@271
	?yy_err_total_warnings_found@yy_err_gen_obj@@QAEHH@Z        	@272
	?yy_err_total_warnings_found@yy_err_gen_obj@@QBEHXZ         	@273
	?yy_err_vprintf@yy_err_gen_obj@@UAEHPBDPAD@Z                	@274
	?yy_err_vreport@yy_err_gen_obj@@UAEHHPAD@Z                  	@275
	?yy_errmsg_format@yy_errmsg_dflt_obj@@UBEPBDXZ              	@276
	?yy_errmsg_number@yy_errmsg_dflt_obj@@QBEHXZ                	@277
	?yy_errmsg_severity@yy_errmsg_dflt_obj@@UBEHXZ              	@278
	?yy_hash_str@yy_symtab_dflt_obj@@MAEHPBDH@Z                 	@279
	?yy_inp_attached@yy_inp_obj@@QAEHXZ                         	@280
	?yy_inp_attached@yy_lex_obj@@QAEHXZ                         	@281
	?yy_inp_buf_fill@yy_inp_file_obj@@UAEXXZ                    	@282
	?yy_inp_buf_fill@yy_inp_getc_obj@@UAEXXZ                    	@283
	?yy_inp_buf_fill@yy_inp_stream_obj@@UAEXXZ                  	@284
	?yy_inp_buf_fill@yy_inp_string_obj@@UAEXXZ                  	@285
	?yy_inp_buf_restore@yy_inp_getc_obj@@UAEXXZ                 	@286
	?yy_inp_buf_restore@yy_inp_obj@@MAEXXZ                      	@287
	?yy_inp_buf_save@yy_inp_getc_obj@@UAEXXZ                    	@288
	?yy_inp_buf_save@yy_inp_obj@@MAEXXZ                         	@289
	?yy_inp_close@yy_inp_file_obj@@UAEHH@Z                      	@290
	?yy_inp_close@yy_inp_getc_obj@@UAEHH@Z                      	@291
	?yy_inp_close@yy_inp_obj@@UAEHH@Z                           	@292
	?yy_inp_close@yy_inp_stream_obj@@UAEHH@Z                    	@293
	?yy_inp_close@yy_inp_string_obj@@UAEHH@Z                    	@294
	?yy_inp_close@yy_lex_obj@@QAEHH@Z                           	@295
	?yy_inp_cur_buf@yy_inp_obj@@QAEPAVyy_buf_obj@@PAV2@@Z       	@296
	?yy_inp_cur_buf@yy_inp_obj@@QAEPAVyy_buf_obj@@XZ            	@297
	?yy_inp_cur_err@yy_inp_obj@@QAEPAVyy_err_obj@@PAV2@@Z       	@298
	?yy_inp_cur_err@yy_inp_obj@@QAEPAVyy_err_obj@@XZ            	@299
	?yy_inp_cur_fp@yy_inp_getc_obj@@QAEPAU_iobuf@@XZ            	@300
	?yy_inp_cur_lex@yy_inp_obj@@QAEPAVyy_lex_obj@@XZ            	@301
	?yy_inp_cur_lex@yy_inp_obj@@UAEPAVyy_lex_obj@@PAV2@@Z       	@302
	?yy_inp_cur_offset@yy_inp_file_obj@@UAEKXZ                  	@303
	?yy_inp_cur_offset@yy_inp_getc_obj@@UAEKXZ                  	@304
	?yy_inp_cur_offset@yy_inp_stream_obj@@UAEKXZ                	@305
	?yy_inp_cur_offset@yy_inp_string_obj@@UAEKXZ                	@306
	?yy_inp_cur_offset_as_filepos@yy_inp_file_obj@@QAEJXZ       	@307
	?yy_inp_cur_offset_as_getcpos@yy_inp_getc_obj@@QAEJXZ       	@308
	?yy_inp_cur_offset_as_streampos@yy_inp_stream_obj@@QAEJXZ   	@309
	?yy_inp_cur_offset_as_stringpos@yy_inp_string_obj@@QAEIXZ   	@310
	?yy_inp_cur_stream@yy_inp_stream_obj@@QAEPAVistream@@XZ     	@311
	?yy_inp_delete_stream@yy_inp_stream_obj@@QAEHH@Z            	@312
	?yy_inp_delete_stream@yy_inp_stream_obj@@QAEHXZ             	@313
	?yy_inp_dmp@yy_inp_file_obj@@UAEXPAVyy_err_obj@@PBD@Z       	@314
	?yy_inp_dmp@yy_inp_getc_obj@@UAEXPAVyy_err_obj@@PBD@Z       	@315
	?yy_inp_dmp@yy_inp_obj@@UAEXPAVyy_err_obj@@PBD@Z            	@316
	?yy_inp_dmp@yy_inp_stream_obj@@UAEXPAVyy_err_obj@@PBD@Z     	@317
	?yy_inp_filename@yy_inp_obj@@QAEPBDPBD@Z                    	@318
	?yy_inp_filename@yy_inp_obj@@QAEPBDXZ                       	@319
	?yy_inp_filename@yy_lex_obj@@QAEPBDXZ                       	@320
	?yy_inp_is_cin@yy_inp_stream_obj@@UAEHXZ                    	@321
	?yy_inp_is_file@yy_inp_file_obj@@UAEHPBDQAPBDH@Z            	@322
	?yy_inp_is_file@yy_inp_getc_obj@@UAEHPBDQAPBD@Z             	@323
	?yy_inp_is_fstream@yy_inp_stream_obj@@UAEHPBDW4open_mode@ios@@@Z	@324
	?yy_inp_is_opened_stream@yy_inp_stream_obj@@UAEHPAVistream@@@Z	@325
	?yy_inp_is_stdin@yy_inp_file_obj@@UAEHXZ                    	@326
	?yy_inp_is_stdin@yy_inp_getc_obj@@UAEHXZ                    	@327
	?yy_inp_is_string@yy_inp_string_obj@@UAEHPADH@Z             	@328
	?yy_inp_is_strstream@yy_inp_stream_obj@@UAEHPADH@Z          	@329
	?yy_inp_not_attached@yy_inp_obj@@QAEHXZ                     	@330
	?yy_inp_not_attached@yy_lex_obj@@QAEHXZ                     	@331
	?yy_inp_open_buf@yy_inp_obj@@MAEHXZ                         	@332
	?yy_inp_open_buf_finish_setup@yy_inp_obj@@MAEHH@Z           	@333
	?yy_inp_prev_ptr@yy_inp_obj@@QAEAAPAV1@XZ                   	@334
	?yy_inp_prev_ptr@yy_inp_obj@@QAEPAV1@PAV1@@Z                	@335
	?yy_inp_prev_ptr@yy_lex_obj@@QAEAAPAVyy_inp_obj@@XZ         	@336
	?yy_inp_rewind@yy_inp_file_obj@@UAEXXZ                      	@337
	?yy_inp_rewind@yy_inp_getc_obj@@UAEXXZ                      	@338
	?yy_inp_rewind@yy_inp_obj@@UAEXXZ                           	@339
	?yy_inp_rewind@yy_inp_stream_obj@@UAEXXZ                    	@340
	?yy_inp_rewind@yy_inp_string_obj@@UAEXXZ                    	@341
	?yy_inp_rewind@yy_lex_obj@@QAEXXZ                           	@342
	?yy_inp_valid_obj@yy_inp_obj@@UAEHXZ                        	@343
	?yy_lex@yy_lex_obj@@UAEXXZ                                  	@344
	?yy_lex_abort@yy_lex_obj@@QAEXXZ                            	@345
	?yy_lex_char@yy_buf_obj@@QAEAADI@Z                          	@346
	?yy_lex_cur_inp@yy_lex_obj@@QAEAAPAVyy_inp_obj@@XZ          	@347
	?yy_lex_cur_obj_ptr@yy_lex_obj@@1PAV1@A                     	@348
	?yy_lex_cur_psr@yy_lex_obj@@QAEAAPAVyy_psr_obj@@XZ          	@349
	?yy_lex_cur_symtab@yy_lex_obj@@QAEAAPAVyy_symtab_obj@@XZ    	@350
	?yy_lex_cur_tkn_count@yy_lex_obj@@QAEAAHXZ                  	@351
	?yy_lex_discard@yy_lex_obj@@QAEXXZ                          	@352
	?yy_lex_dmp@yy_lex_obj@@UAEXPAVyy_err_obj@@PBD@Z            	@353
	?yy_lex_ins@yy_lex_obj_fast@@UAEXPADH@Z                     	@354
	?yy_lex_ins@yy_lex_obj_readable@@UAEXPADH@Z                 	@355
	?yy_lex_ins@yy_lex_obj_small@@UAEXPADH@Z                    	@356
	?yy_lex_is_done@yy_lex_obj@@QAEHXZ                          	@357
	?yy_lex_len@yy_buf_obj@@QAEIXZ                              	@358
	?yy_lex_opc_tbl@yy_lex_obj@@1PAPADA                         	@359
	?yy_lex_pause@yy_lex_obj@@QAEXXZ                            	@360
	?yy_lex_quit@yy_lex_obj@@QAEXXZ                             	@361
	?yy_lex_rdc@yy_lex_obj@@QAEAAHXZ                            	@362
	?yy_lex_resume@yy_lex_obj@@QAEXXZ                           	@363
	?yy_lex_rewind@yy_lex_obj@@QAEXXZ                           	@364
	?yy_lex_rslt@yy_lex_obj@@QAEAAVyy_ref_obj@@XZ               	@365
	?yy_lex_rslt_init@yy_lex_obj@@QAEHXZ                        	@366
	?yy_lex_start@yy_lex_obj@@QAEXH@Z                           	@367
	?yy_lex_token@yy_buf_obj@@QAEAAPADXZ                        	@368
	?yy_lex_valid_obj@yy_lex_obj@@UAEHXZ                        	@369
	?yy_loc_msg@yy_loc_dflt_obj@@UAEPADPBD@Z                    	@370
	?yy_loc_msg@yy_loc_dflt_obj@@UAEPADXZ                       	@371
	?yy_loc_prev@yy_loc_obj@@QAEPAV1@PAV1@@Z                    	@372
	?yy_loc_prev@yy_loc_obj@@QAEPAV1@XZ                         	@373
	?yy_loc_print_self@yy_inp_file_obj@@UAEHPAVyy_err_obj@@@Z   	@374
	?yy_loc_print_self@yy_inp_getc_obj@@UAEHPAVyy_err_obj@@@Z   	@375
	?yy_loc_print_self@yy_inp_obj@@UAEHPAVyy_err_obj@@@Z        	@376
	?yy_loc_print_self@yy_inp_string_obj@@UAEHPAVyy_err_obj@@@Z 	@377
	?yy_loc_print_self@yy_loc_dflt_obj@@UAEHPAVyy_err_obj@@@Z   	@378
	?yy_loc_stack_pop@yy_loc_stack_obj@@UAEXXZ                  	@379
	?yy_loc_stack_push@yy_loc_stack_obj@@UAEXPAVyy_loc_obj@@@Z  	@380
	?yy_loc_stack_top@yy_loc_stack_obj@@UAEPAVyy_loc_obj@@XZ    	@381
	?yy_new_sym_obj@yy_symtab_dflt_obj@@MAEPAVyy_sym_dflt_obj@@PAV2@PADHHHH@Z	@382
	?yy_psr@@YAHPAVyy_psr_obj@@@Z                               	@383
	?yy_psr_abort@yy_psr_obj@@QAEXXZ                            	@384
	?yy_psr_aborts_on_error@yy_psr_obj@@QAEHXZ                  	@385
	?yy_psr_cur_lex@yy_psr_obj@@QAEAAPAVyy_lex_obj@@XZ          	@386
	?yy_psr_display_expected@yy_psr_obj_fast@@UAEXXZ            	@387
	?yy_psr_display_expected@yy_psr_obj_readable@@UAEXXZ        	@388
	?yy_psr_display_expected@yy_psr_obj_small@@UAEXXZ           	@389
	?yy_psr_dmp@yy_psr_obj@@UAEXPAVyy_err_obj@@PBD@Z            	@390
	?yy_psr_err@yy_psr_obj_fast@@UAEXXZ                         	@391
	?yy_psr_err@yy_psr_obj_readable@@UAEXXZ                     	@392
	?yy_psr_err@yy_psr_obj_small@@UAEXXZ                        	@393
	?yy_psr_err_sync@yy_psr_obj@@QAEXXZ                         	@394
	?yy_psr_error@yy_psr_obj@@QAEAAHH@Z                         	@395
	?yy_psr_error@yy_psr_obj@@QAEAAHXZ                          	@396
	?yy_psr_ins@yy_psr_obj_fast@@UAEXVyy_ref_obj@@@Z            	@397
	?yy_psr_ins@yy_psr_obj_readable@@UAEXVyy_ref_obj@@@Z        	@398
	?yy_psr_ins@yy_psr_obj_small@@UAEXVyy_ref_obj@@@Z           	@399
	?yy_psr_is_done@yy_psr_obj@@QAEHXZ                          	@400
	?yy_psr_last@yy_psr_obj@@QAEHXZ                             	@401
	?yy_psr_last_obj_ptr@yy_psr_obj@@1PAV1@A                    	@402
	?yy_psr_opc_tbl@yy_psr_obj@@1PAPADA                         	@403
	?yy_psr_pause@yy_psr_obj@@QAEXXZ                            	@404
	?yy_psr_quit@yy_psr_obj@@QAEXXZ                             	@405
	?yy_psr_rdc@yy_psr_obj@@QAEAAHH@Z                           	@406
	?yy_psr_rdc@yy_psr_obj@@QAEAAHXZ                            	@407
	?yy_psr_ref@yy_psr_obj@@QAEAAVyy_ref_obj@@H@Z               	@408
	?yy_psr_resume@yy_psr_obj@@QAEXXZ                           	@409
	?yy_psr_rewind@yy_psr_obj@@QAEXXZ                           	@410
	?yy_psr_rslt@yy_psr_obj@@QAEAAVyy_ref_obj@@XZ               	@411
	?yy_psr_start@yy_psr_obj@@UAEXHH@Z                          	@412
	?yy_psr_type@yy_psr_obj@@QAEAAHH@Z                          	@413
	?yy_psr_valid_obj@yy_psr_obj@@UAEHXZ                        	@414
	?yy_sym_dmp@yy_sym_dflt_obj@@UAEXPAVyy_err_obj@@PBD@Z       	@415
	?yy_sym_flags@yy_sym_dflt_obj@@UAEHH@Z                      	@416
	?yy_sym_flags@yy_sym_dflt_obj@@UAEHXZ                       	@417
	?yy_sym_len@yy_sym_dflt_obj@@UAEHH@Z                        	@418
	?yy_sym_len@yy_sym_dflt_obj@@UAEHXZ                         	@419
	?yy_sym_next@yy_sym_dflt_obj@@UAEPAV1@XZ                    	@420
	?yy_sym_next@yy_sym_dflt_obj@@UAEPAVyy_sym_obj@@PAV1@@Z     	@421
	?yy_sym_str@yy_sym_dflt_obj@@UAEPBDPAD@Z                    	@422
	?yy_sym_str@yy_sym_dflt_obj@@UAEPBDXZ                       	@423
	?yy_sym_tkn_type@yy_sym_dflt_obj@@UAEHH@Z                   	@424
	?yy_sym_tkn_type@yy_sym_dflt_obj@@UAEHXZ                    	@425
	?yy_sym_type@yy_sym_dflt_obj@@UAEHH@Z                       	@426
	?yy_sym_type@yy_sym_dflt_obj@@UAEHXZ                        	@427
	?yy_sym_valid_obj@yy_sym_obj@@UAEHXZ                        	@428
	?yy_symtab_dmp@yy_symtab_dflt_obj@@UAEXPAVyy_err_obj@@PBD@Z 	@429
	?yy_symtab_insensitive_kws@yy_symtab_dflt_obj@@UAEHH@Z      	@430
	?yy_symtab_insensitive_kws@yy_symtab_dflt_obj@@UAEHXZ       	@431
	?yy_symtab_install_kw@yy_symtab_dflt_obj@@UAEPAVyy_sym_obj@@PBDHHH@Z	@432
	?yy_symtab_lookup@yy_lex_obj@@QAEPAVyy_sym_obj@@PBDHH@Z     	@433
	?yy_symtab_lookup@yy_symtab_dflt_obj@@UAEPAVyy_sym_obj@@PBDHH@Z	@434
	?yy_symtab_lookup_kw@yy_lex_obj@@QAEPAVyy_sym_obj@@PBDHH@Z  	@435
	?yy_symtab_lookup_kw@yy_symtab_dflt_obj@@UAEPAVyy_sym_obj@@PBDHH@Z	@436
	?yy_symtab_lookup_only@yy_lex_obj@@QAEPAVyy_sym_obj@@PBDHH@Z	@437
	?yy_symtab_lookup_only@yy_symtab_dflt_obj@@UAEPAVyy_sym_obj@@PBDHH@Z	@438
	?yy_symtab_lookup_only_kw@yy_lex_obj@@QAEPAVyy_sym_obj@@PBDHH@Z	@439
	?yy_symtab_lookup_only_kw@yy_symtab_dflt_obj@@UAEPAVyy_sym_obj@@PBDHH@Z	@440
	?yy_symtab_remove_sym@yy_lex_obj@@QAEHPAVyy_sym_obj@@@Z     	@441
	?yy_symtab_remove_sym@yy_symtab_dflt_obj@@UAEHPAVyy_sym_obj@@@Z	@442
	?yy_symtab_valid_obj@yy_symtab_obj@@UAEHXZ                  	@443
	?yy_synamsg_message@yy_synamsg_dflt_obj@@UBEPBDXZ           	@444
	?yy_synamsg_number@yy_synamsg_dflt_obj@@QBEHXZ              	@445
	?yy_type@yy_ref_obj@@QAEAAHH@Z                              	@446
	?yy_type@yy_ref_obj@@QAEAAHXZ                               	@447
	?yy_valid_obj@yy_ast_dump_obj@@UAEHXZ                       	@448
